(dp0
S'n-Hexane'
p1
(dp2
S'GROUP'
p3
S'Hydrocarbons'
p4
sS'TITLE'
p5
g1
sS'CAS REGISTRY NO'
p6
F110.0
sS'NPOINTS'
p7
F32.0
sS'PATH'
p8
S'./library/110-54-3-Mass.jdx'
p9
sS'YFACTOR'
p10
F1.0
sS'$NIST MASS SPEC NO'
p11
F19379.0
sS'MOLFORM'
p12
S'C6 H14'
p13
sS'PEAK TABLE'
p14
((lp15
F2.0
aF12.0
aF13.0
aF14.0
aF15.0
aF16.0
aF26.0
aF27.0
aF28.0
aF29.0
aF30.0
aF32.0
aF39.0
aF40.0
aF41.0
aF42.0
aF43.0
aF44.0
aF53.0
aF54.0
aF55.0
aF56.0
aF57.0
aF58.0
aF69.0
aF70.0
aF71.0
aF72.0
aF84.0
aF85.0
aF86.0
aF87.0
a(lp16
F10.0
aF10.0
aF10.0
aF60.0
aF581.0
aF20.0
aF390.0
aF4544.0
aF1071.0
aF6065.0
aF130.0
aF10.0
aF1972.0
aF320.0
aF7016.0
aF4094.0
aF8127.0
aF270.0
aF170.0
aF60.0
aF661.0
aF4534.0
aF9999.0
aF440.0
aF30.0
aF70.0
aF500.0
aF30.0
aF10.0
aF40.0
aF1551.0
aF100.0
atp17
sS'LASTX'
p18
F87.0
sS'XFACTOR'
p19
F1.0
sS'JCAMP-DX'
p20
F4.24
sS'MINX'
p21
F2.0
sS'MINY'
p22
F10.0
sS'MAXY'
p23
F9999.0
sS'DATA TYPE'
p24
S'MASS SPECTRUM'
p25
sS'FIRSTX'
p26
F2.0
sS'MAXX'
p27
F87.0
sS'XUNITS'
p28
S'M/Z'
p29
sS'FIRSTY'
p30
F10.0
sS'$NIST SOURCE'
p31
S'MSDC'
p32
sS'MW'
p33
F86.0
sS'YUNITS'
p34
S'RELATIVE INTENSITY'
p35
sS'OWNER'
p36
S'NIST Mass Spectrometry Data Center'
p37
ssS'Benzaldehyde, 4-methyl-'
p38
(dp39
S'GROUP'
p40
S'Hydrocarbons'
p41
sS'TITLE'
p42
g38
sS'CAS REGISTRY NO'
p43
F104.0
sS'NPOINTS'
p44
F57.0
sg8
S'./library/104-87-0-Mass.jdx'
p45
sS'YFACTOR'
p46
F1.0
sS'$NIST MASS SPEC NO'
p47
F229855.0
sS'MOLFORM'
p48
S'C8 H8 O'
p49
sS'PEAK TABLE'
p50
((lp51
F15.0
aF18.0
aF26.0
aF27.0
aF28.0
aF29.0
aF36.0
aF37.0
aF38.0
aF39.0
aF40.0
aF41.0
aF42.0
aF43.0
aF44.0
aF45.0
aF46.0
aF49.0
aF50.0
aF51.0
aF52.0
aF53.0
aF59.0
aF60.0
aF61.0
aF62.0
aF63.0
aF64.0
aF65.0
aF66.0
aF69.0
aF73.0
aF74.0
aF75.0
aF76.0
aF77.0
aF78.0
aF84.0
aF85.0
aF86.0
aF87.0
aF88.0
aF89.0
aF90.0
aF91.0
aF92.0
aF93.0
aF98.0
aF102.0
aF103.0
aF105.0
aF106.0
aF118.0
aF119.0
aF120.0
aF121.0
aF122.0
a(lp52
F10.0
aF10.0
aF60.0
aF239.0
aF90.0
aF179.0
aF10.0
aF159.0
aF349.0
aF1939.0
aF179.0
aF389.0
aF20.0
aF90.0
aF20.0
aF80.0
aF10.0
aF80.0
aF669.0
aF1009.0
aF179.0
aF119.0
aF90.0
aF30.0
aF239.0
aF559.0
aF1369.0
aF329.0
aF2969.0
aF199.0
aF10.0
aF40.0
aF199.0
aF129.0
aF70.0
aF139.0
aF20.0
aF20.0
aF80.0
aF139.0
aF109.0
aF30.0
aF839.0
aF419.0
aF9999.0
aF1109.0
aF50.0
aF10.0
aF10.0
aF10.0
aF50.0
aF10.0
aF80.0
aF9609.0
aF9099.0
aF809.0
aF40.0
atp53
sS'LASTX'
p54
F122.0
sS'XFACTOR'
p55
F1.0
sS'ORIGIN'
p56
S'Japan AIST/NIMC Database- Spectrum MS-NW-8339'
p57
sS'JCAMP-DX'
p58
F4.24
sS'MINX'
p59
F15.0
sS'MINY'
p60
F10.0
sS'MAXY'
p61
F9999.0
sS'DATA TYPE'
p62
S'MASS SPECTRUM'
p63
sS'FIRSTX'
p64
F15.0
sS'MAXX'
p65
F122.0
sS'XUNITS'
p66
S'M/Z'
p67
sS'FIRSTY'
p68
F10.0
sS'$NIST SOURCE'
p69
S'MSDC'
p70
sS'MW'
p71
F120.0
sS'YUNITS'
p72
S'RELATIVE INTENSITY'
p73
sS'OWNER'
p74
S'NIST Mass Spectrometry Data Center'
p75
ssS'n-Heptafluoropropyl bromide'
p76
(dp77
S'GROUP'
p78
S'Fluorocarbons'
p79
sS'TITLE'
p80
g76
sS'CAS REGISTRY NO'
p81
F422.0
sS'NPOINTS'
p82
F15.0
sg8
S'./library/422-85-5-Mass.jdx'
p83
sS'YFACTOR'
p84
F1.0
sS'$NIST MASS SPEC NO'
p85
F215689.0
sS'MOLFORM'
p86
S'C3 Br F7'
p87
sS'PEAK TABLE'
p88
((lp89
F31.0
aF50.0
aF69.0
aF79.0
aF81.0
aF93.0
aF100.0
aF112.0
aF129.0
aF131.0
aF169.0
aF229.0
aF231.0
aF248.0
aF250.0
a(lp90
F9528.0
aF3703.0
aF9999.0
aF1391.0
aF1571.0
aF480.0
aF3533.0
aF320.0
aF4323.0
aF4373.0
aF8627.0
aF320.0
aF300.0
aF210.0
aF210.0
atp91
sS'LASTX'
p92
F250.0
sS'XFACTOR'
p93
F1.0
sS'ORIGIN'
p94
S'Thomas J.Bruno'
p95
sS'JCAMP-DX'
p96
F4.24
sS'MINX'
p97
F31.0
sS'MINY'
p98
F210.0
sS'MAXY'
p99
F9999.0
sS'DATA TYPE'
p100
S'MASS SPECTRUM'
p101
sS'FIRSTX'
p102
F31.0
sS'MAXX'
p103
F250.0
sS'XUNITS'
p104
S'M/Z'
p105
sS'FIRSTY'
p106
F9528.0
sS'$NIST SOURCE'
p107
S'MSDC'
p108
sS'MW'
p109
F248.0
sS'YUNITS'
p110
S'RELATIVE INTENSITY'
p111
sS'OWNER'
p112
S'NIST Mass Spectrometry Data Center'
p113
ssS'Ethene, tetrafluoro-'
p114
(dp115
S'GROUP'
p116
S'Fluorocarbons'
p117
sS'TITLE'
p118
g114
sS'CAS REGISTRY NO'
p119
F116.0
sS'NPOINTS'
p120
F19.0
sg8
S'./library/116-14-3-Mass.jdx'
p121
sS'YFACTOR'
p122
F1.0
sS'$NIST MASS SPEC NO'
p123
F19857.0
sS'MOLFORM'
p124
S'C2 F4'
p125
sS'PEAK TABLE'
p126
((lp127
F12.0
aF13.0
aF19.0
aF24.0
aF25.0
aF31.0
aF32.0
aF43.0
aF44.0
aF50.0
aF51.0
aF62.0
aF63.0
aF69.0
aF70.0
aF81.0
aF82.0
aF100.0
aF101.0
a(lp128
F771.0
aF10.0
aF140.0
aF240.0
aF10.0
aF9999.0
aF100.0
aF140.0
aF10.0
aF3083.0
aF60.0
aF100.0
aF10.0
aF360.0
aF10.0
aF7317.0
aF140.0
aF4314.0
aF100.0
atp129
sS'LASTX'
p130
F101.0
sS'XFACTOR'
p131
F1.0
sS'JCAMP-DX'
p132
F4.24
sS'MINX'
p133
F12.0
sS'MINY'
p134
F10.0
sS'MAXY'
p135
F9999.0
sS'DATA TYPE'
p136
S'MASS SPECTRUM'
p137
sS'FIRSTX'
p138
F12.0
sS'MAXX'
p139
F101.0
sS'XUNITS'
p140
S'M/Z'
p141
sS'FIRSTY'
p142
F771.0
sS'$NIST SOURCE'
p143
S'MSDC'
p144
sS'MW'
p145
F100.0
sS'YUNITS'
p146
S'RELATIVE INTENSITY'
p147
sS'OWNER'
p148
S'NIST Mass Spectrometry Data Center'
p149
ssS'Cyclopentasiloxane, decamethyl-'
p150
(dp151
S'TITLE'
p152
g150
sS'CAS REGISTRY NO'
p153
F541.0
sS'NPOINTS'
p154
F127.0
sg8
S'./library/541-02-6-Mass.jdx'
p155
sS'YFACTOR'
p156
F1.0
sS'$NIST MASS SPEC NO'
p157
F133340.0
sS'MOLFORM'
p158
S'C10 H30 O5 Si5'
p159
sS'PEAK TABLE'
p160
((lp161
F14.0
aF15.0
aF28.0
aF29.0
aF32.0
aF43.0
aF45.0
aF46.0
aF47.0
aF57.0
aF59.0
aF60.0
aF61.0
aF70.0
aF71.0
aF73.0
aF74.0
aF75.0
aF76.0
aF83.0
aF85.0
aF87.0
aF96.0
aF99.0
aF103.0
aF104.0
aF105.0
aF108.0
aF111.0
aF112.0
aF115.0
aF117.0
aF118.0
aF119.0
aF125.0
aF126.0
aF131.0
aF132.0
aF133.0
aF134.0
aF135.0
aF139.0
aF140.0
aF147.0
aF148.0
aF149.0
aF154.0
aF155.0
aF162.0
aF163.0
aF164.0
aF165.0
aF166.0
aF170.0
aF175.0
aF176.0
aF177.0
aF178.0
aF179.0
aF180.0
aF181.0
aF189.0
aF191.0
aF192.0
aF193.0
aF194.0
aF195.0
aF203.0
aF204.0
aF205.0
aF206.0
aF207.0
aF208.0
aF209.0
aF219.0
aF221.0
aF223.0
aF224.0
aF225.0
aF235.0
aF236.0
aF237.0
aF238.0
aF239.0
aF249.0
aF250.0
aF251.0
aF252.0
aF253.0
aF254.0
aF255.0
aF263.0
aF264.0
aF265.0
aF266.0
aF267.0
aF268.0
aF269.0
aF270.0
aF271.0
aF279.0
aF281.0
aF282.0
aF283.0
aF293.0
aF294.0
aF295.0
aF308.0
aF309.0
aF310.0
aF311.0
aF323.0
aF324.0
aF325.0
aF326.0
aF327.0
aF339.0
aF340.0
aF341.0
aF342.0
aF343.0
aF355.0
aF356.0
aF357.0
aF358.0
aF359.0
aF360.0
a(lp162
F16.0
aF25.0
aF101.0
aF12.0
aF34.0
aF26.0
aF337.0
aF24.0
aF22.0
aF11.0
aF285.0
aF22.0
aF21.0
aF6.0
aF21.0
aF6466.0
aF546.0
aF293.0
aF14.0
aF8.0
aF37.0
aF60.0
aF11.0
aF12.0
aF26.0
aF10.0
aF11.0
aF43.0
aF16.0
aF11.0
aF13.0
aF14.0
aF26.0
aF41.0
aF41.0
aF22.0
aF8.0
aF11.0
aF65.0
aF10.0
aF18.0
aF10.0
aF7.0
aF37.0
aF17.0
aF8.0
aF136.0
aF51.0
aF93.0
aF45.0
aF12.0
aF33.0
aF12.0
aF46.0
aF8.0
aF15.0
aF67.0
aF20.0
aF125.0
aF32.0
aF13.0
aF24.0
aF186.0
aF55.0
aF215.0
aF51.0
aF36.0
aF41.0
aF10.0
aF100.0
aF19.0
aF113.0
aF29.0
aF16.0
aF11.0
aF15.0
aF134.0
aF40.0
aF23.0
aF47.0
aF19.0
aF112.0
aF21.0
aF19.0
aF282.0
aF90.0
aF460.0
aF134.0
aF152.0
aF32.0
aF23.0
aF63.0
aF15.0
aF90.0
aF15.0
aF6501.0
aF1687.0
aF1030.0
aF215.0
aF65.0
aF9.0
aF58.0
aF14.0
aF10.0
aF40.0
aF19.0
aF16.0
aF7.0
aF55.0
aF17.0
aF11.0
aF320.0
aF113.0
aF175.0
aF50.0
aF27.0
aF459.0
aF156.0
aF117.0
aF29.0
aF11.0
aF9999.0
aF3583.0
aF2419.0
aF561.0
aF200.0
aF42.0
atp163
sS'LASTX'
p164
F360.0
sS'XFACTOR'
p165
F1.0
sS'ORIGIN'
p166
S'NIST Mass Spectrometry Data Center, 1994'
p167
sS'JCAMP-DX'
p168
F4.24
sS'MINX'
p169
F14.0
sS'MINY'
p170
F6.0
sS'MAXY'
p171
F9999.0
sS'DATA TYPE'
p172
S'MASS SPECTRUM'
p173
sS'FIRSTX'
p174
F14.0
sS'MAXX'
p175
F360.0
sS'XUNITS'
p176
S'M/Z'
p177
sS'FIRSTY'
p178
F16.0
sS'$NIST SOURCE'
p179
S'MSDC'
p180
sS'MW'
p181
F370.0
sS'YUNITS'
p182
S'RELATIVE INTENSITY'
p183
sS'OWNER'
p184
S'NIST Mass Spectrometry Data Center'
p185
ssS'Dibutyl phthalate'
p186
(dp187
S'GROUP'
p188
S'Hydrocarbons'
p189
sS'TITLE'
p190
g186
sS'CAS REGISTRY NO'
p191
F84.0
sS'NPOINTS'
p192
F45.0
sg8
S'./library/84-74-2-Mass.jdx'
p193
sS'YFACTOR'
p194
F1.0
sS'$NIST MASS SPEC NO'
p195
F114974.0
sS'MOLFORM'
p196
S'C16 H22 O4'
p197
sS'PEAK TABLE'
p198
((lp199
F26.0
aF27.0
aF28.0
aF29.0
aF31.0
aF32.0
aF39.0
aF41.0
aF42.0
aF43.0
aF50.0
aF51.0
aF52.0
aF53.0
aF54.0
aF55.0
aF56.0
aF57.0
aF65.0
aF66.0
aF73.0
aF74.0
aF75.0
aF76.0
aF77.0
aF93.0
aF94.0
aF104.0
aF105.0
aF106.0
aF121.0
aF122.0
aF123.0
aF132.0
aF135.0
aF149.0
aF150.0
aF151.0
aF160.0
aF167.0
aF205.0
aF206.0
aF223.0
aF224.0
aF278.0
a(lp200
F23.0
aF167.0
aF200.0
aF396.0
aF27.0
aF48.0
aF206.0
aF671.0
aF46.0
aF81.0
aF200.0
aF78.0
aF22.0
aF35.0
aF24.0
aF145.0
aF351.0
aF330.0
aF382.0
aF39.0
aF25.0
aF53.0
aF94.0
aF644.0
aF168.0
aF360.0
aF31.0
aF587.0
aF299.0
aF41.0
aF308.0
aF189.0
aF102.0
aF57.0
aF52.0
aF9999.0
aF884.0
aF94.0
aF64.0
aF39.0
aF401.0
aF65.0
aF470.0
aF61.0
aF53.0
atp201
sS'LASTX'
p202
F278.0
sS'XFACTOR'
p203
F1.0
sS'ORIGIN'
p204
S'NIST Mass Spectrometry Data Center, 1990.'
p205
sS'JCAMP-DX'
p206
F4.24
sS'MINX'
p207
F26.0
sS'MINY'
p208
F22.0
sS'MAXY'
p209
F9999.0
sS'DATA TYPE'
p210
S'MASS SPECTRUM'
p211
sS'FIRSTX'
p212
F26.0
sS'MAXX'
p213
F278.0
sS'XUNITS'
p214
S'M/Z'
p215
sS'FIRSTY'
p216
F23.0
sS'$NIST SOURCE'
p217
S'MSDC'
p218
sS'MW'
p219
F278.0
sS'YUNITS'
p220
S'RELATIVE INTENSITY'
p221
sS'OWNER'
p222
S'NIST Mass Spectrometry Data Center'
p223
ssS'Diisobutyl Phthalate'
p224
(dp225
S'GROUP'
p226
S'Hydrocarbons'
p227
sS'TITLE'
p228
g224
sg8
S'./library/Diisobutyle Phthalate.jdx'
p229
sS'MW'
p230
F278.15181
sS'YUNITS'
p231
S'RELATIVE INTENSITY'
p232
sS'MOLFORM'
p233
S'C16H22O4'
p234
sS'DATA TYPE'
p235
S'MASS SPECTRUM'
p236
sS'PEAK TABLE'
p237
((lp238
F76.0
aF77.0
aF104.0
aF105.0
aF149.0
aF150.0
aF151.0
aF167.0
aF189.0
aF205.0
aF206.0
aF223.0
aF224.0
aF279.0
aF280.0
a(lp239
F19.0
aF11.0
aF45.0
aF14.0
aF999.0
aF95.0
aF12.0
aF41.0
aF49.0
aF337.0
aF51.0
aF151.0
aF19.0
aF195.0
aF36.0
atp240
ssS'Ethylene'
p241
(dp242
S'GROUP'
p243
S'Hydrocarbons'
p244
sS'TITLE'
p245
g241
sS'CAS REGISTRY NO'
p246
F74.0
sS'NPOINTS'
p247
F12.0
sg8
S'./library/74-85-1-Mass.jdx'
p248
sS'YFACTOR'
p249
F1.0
sS'$NIST MASS SPEC NO'
p250
F18814.0
sS'MOLFORM'
p251
S'C2 H4'
p252
sS'PEAK TABLE'
p253
((lp254
F2.0
aF12.0
aF13.0
aF14.0
aF15.0
aF24.0
aF25.0
aF26.0
aF27.0
aF28.0
aF29.0
aF30.0
a(lp255
F10.0
aF50.0
aF90.0
aF210.0
aF30.0
aF230.0
aF781.0
aF5295.0
aF6236.0
aF9999.0
aF230.0
aF10.0
atp256
sS'LASTX'
p257
F30.0
sS'XFACTOR'
p258
F1.0
sS'JCAMP-DX'
p259
F4.24
sS'MINX'
p260
F2.0
sS'MINY'
p261
F10.0
sS'MAXY'
p262
F9999.0
sS'DATA TYPE'
p263
S'MASS SPECTRUM'
p264
sS'FIRSTX'
p265
F2.0
sS'MAXX'
p266
F30.0
sS'XUNITS'
p267
S'M/Z'
p268
sS'FIRSTY'
p269
F10.0
sS'$NIST SOURCE'
p270
S'MSDC'
p271
sS'MW'
p272
F28.0
sS'YUNITS'
p273
S'RELATIVE INTENSITY'
p274
sS'OWNER'
p275
S'NIST Mass Spectrometry Data Center'
p276
ssS'Butane, decafluoro-'
p277
(dp278
S'GROUP'
p279
S'Fluorocarbons'
p280
sS'TITLE'
p281
g277
sS'CAS REGISTRY NO'
p282
F355.0
sS'NPOINTS'
p283
F20.0
sg8
S'./library/355-25-9-Mass.jdx'
p284
sS'YFACTOR'
p285
F1.0
sS'$NIST MASS SPEC NO'
p286
F11524.0
sS'MOLFORM'
p287
S'C4 F10'
p288
sS'PEAK TABLE'
p289
((lp290
F12.0
aF19.0
aF31.0
aF43.0
aF50.0
aF55.0
aF62.0
aF69.0
aF74.0
aF81.0
aF93.0
aF100.0
aF112.0
aF119.0
aF131.0
aF150.0
aF169.0
aF181.0
aF219.0
aF238.0
a(lp291
F20.0
aF10.0
aF1221.0
aF20.0
aF420.0
aF10.0
aF50.0
aF9999.0
aF30.0
aF80.0
aF120.0
aF841.0
aF20.0
aF1832.0
aF841.0
aF260.0
aF210.0
aF10.0
aF260.0
aF10.0
atp292
sS'LASTX'
p293
F238.0
sS'XFACTOR'
p294
F1.0
sS'JCAMP-DX'
p295
F4.24
sS'MINX'
p296
F12.0
sS'MINY'
p297
F10.0
sS'MAXY'
p298
F9999.0
sS'DATA TYPE'
p299
S'MASS SPECTRUM'
p300
sS'FIRSTX'
p301
F12.0
sS'MAXX'
p302
F238.0
sS'XUNITS'
p303
S'M/Z'
p304
sS'FIRSTY'
p305
F20.0
sS'$NIST SOURCE'
p306
S'MSDC'
p307
sS'MW'
p308
F238.0
sS'YUNITS'
p309
S'RELATIVE INTENSITY'
p310
sS'OWNER'
p311
S'NIST Mass Spectrometry Data Center'
p312
ssS'Methyl propionate'
p313
(dp314
S'TITLE'
p315
g313
sS'CAS REGISTRY NO'
p316
F554.0
sS'NPOINTS'
p317
F43.0
sg8
S'./library/554-12-1-Mass.jdx'
p318
sS'YFACTOR'
p319
F1.0
sS'$NIST MASS SPEC NO'
p320
F107258.0
sS'MOLFORM'
p321
S'C4 H8 O2'
p322
sS'PEAK TABLE'
p323
((lp324
F12.0
aF13.0
aF14.0
aF15.0
aF16.0
aF17.0
aF19.0
aF24.0
aF25.0
aF26.0
aF27.0
aF28.0
aF29.0
aF30.0
aF31.0
aF32.0
aF33.0
aF36.0
aF37.0
aF38.0
aF39.0
aF40.0
aF41.0
aF42.0
aF43.0
aF44.0
aF45.0
aF46.0
aF52.0
aF53.0
aF54.0
aF55.0
aF56.0
aF57.0
aF58.0
aF59.0
aF60.0
aF61.0
aF73.0
aF87.0
aF88.0
aF89.0
aF90.0
a(lp325
F5.0
aF27.0
aF156.0
aF2571.0
aF53.0
aF4.0
aF2.0
aF6.0
aF78.0
aF845.0
aF3416.0
aF1636.0
aF9999.0
aF404.0
aF872.0
aF24.0
aF166.0
aF5.0
aF23.0
aF31.0
aF112.0
aF33.0
aF134.0
aF404.0
aF195.0
aF38.0
aF535.0
aF5.0
aF2.0
aF46.0
aF11.0
aF400.0
aF272.0
aF8416.0
aF296.0
aF3075.0
aF112.0
aF28.0
aF7.0
aF314.0
aF4963.0
aF241.0
aF23.0
atp326
sS'LASTX'
p327
F90.0
sS'XFACTOR'
p328
F1.0
sS'ORIGIN'
p329
S'Chuck Anderson, Aldrich Chemical Co.'
p330
sS'JCAMP-DX'
p331
F4.24
sS'MINX'
p332
F12.0
sS'MINY'
p333
F2.0
sS'MAXY'
p334
F9999.0
sS'DATA TYPE'
p335
S'MASS SPECTRUM'
p336
sS'FIRSTX'
p337
F12.0
sS'MAXX'
p338
F90.0
sS'XUNITS'
p339
S'M/Z'
p340
sS'FIRSTY'
p341
F5.0
sS'$NIST SOURCE'
p342
S'MSDC'
p343
sS'MW'
p344
F88.0
sS'YUNITS'
p345
S'RELATIVE INTENSITY'
p346
sS'OWNER'
p347
S'NIST Mass Spectrometry Data Center'
p348
ssS'Phosphine'
p349
(dp350
S'TITLE'
p351
g349
sS'CAS REGISTRY NO'
p352
F7803.0
sS'NPOINTS'
p353
F6.0
sg8
S'./library/7803-51-2-Mass.jdx'
p354
sS'YFACTOR'
p355
F1.0
sS'$NIST MASS SPEC NO'
p356
F42.0
sS'MOLFORM'
p357
S'H3 P'
p358
sS'PEAK TABLE'
p359
((lp360
F16.0
aF17.0
aF31.0
aF32.0
aF33.0
aF34.0
a(lp361
F50.0
aF30.0
aF3213.0
aF1271.0
aF3313.0
aF9999.0
atp362
sS'LASTX'
p363
F34.0
sS'XFACTOR'
p364
F1.0
sS'JCAMP-DX'
p365
F4.24
sS'MINX'
p366
F16.0
sS'MINY'
p367
F30.0
sS'MAXY'
p368
F9999.0
sS'DATA TYPE'
p369
S'MASS SPECTRUM'
p370
sS'FIRSTX'
p371
F16.0
sS'MAXX'
p372
F34.0
sS'XUNITS'
p373
S'M/Z'
p374
sS'FIRSTY'
p375
F50.0
sS'$NIST SOURCE'
p376
S'MSDC'
p377
sS'MW'
p378
F34.0
sS'YUNITS'
p379
S'RELATIVE INTENSITY'
p380
sS'OWNER'
p381
S'NIST Mass Spectrometry Data Center'
p382
ssS'Heptane'
p383
(dp384
S'GROUP'
p385
S'Hydrocarbons'
p386
sS'TITLE'
p387
g383
sS'CAS REGISTRY NO'
p388
F142.0
sS'NPOINTS'
p389
F43.0
sg8
S'./library/142-82-5-Mass.jdx'
p390
sS'YFACTOR'
p391
F1.0
sS'$NIST MASS SPEC NO'
p392
F61276.0
sS'MOLFORM'
p393
S'C7 H16'
p394
sS'PEAK TABLE'
p395
((lp396
F2.0
aF12.0
aF13.0
aF14.0
aF15.0
aF16.0
aF25.0
aF26.0
aF27.0
aF28.0
aF29.0
aF30.0
aF39.0
aF40.0
aF41.0
aF42.0
aF43.0
aF44.0
aF45.0
aF50.0
aF51.0
aF52.0
aF53.0
aF54.0
aF55.0
aF56.0
aF57.0
aF58.0
aF62.0
aF63.0
aF65.0
aF66.0
aF67.0
aF68.0
aF69.0
aF70.0
aF71.0
aF72.0
aF84.0
aF85.0
aF86.0
aF100.0
aF101.0
a(lp397
F69.0
aF5.0
aF18.0
aF90.0
aF670.0
aF20.0
aF15.0
aF438.0
aF4587.0
aF957.0
aF4854.0
aF115.0
aF2292.0
aF395.0
aF5635.0
aF2561.0
aF9999.0
aF347.0
aF7.0
aF71.0
aF125.0
aF48.0
aF238.0
aF83.0
aF1192.0
aF2651.0
aF4745.0
aF217.0
aF13.0
aF23.0
aF27.0
aF10.0
aF36.0
aF7.0
aF78.0
aF1785.0
aF4516.0
aF258.0
aF20.0
aF204.0
aF16.0
aF1261.0
aF96.0
atp398
sS'LASTX'
p399
F101.0
sS'XFACTOR'
p400
F1.0
sS'ORIGIN'
p401
S'D.HENNEBERG, MAX-PLANCK INSTITUTE, MULHEIM, WEST GERMANY'
p402
sS'JCAMP-DX'
p403
F4.24
sS'MINX'
p404
F2.0
sS'MINY'
p405
F5.0
sS'MAXY'
p406
F9999.0
sS'DATA TYPE'
p407
S'MASS SPECTRUM'
p408
sS'FIRSTX'
p409
F2.0
sS'MAXX'
p410
F101.0
sS'XUNITS'
p411
S'M/Z'
p412
sS'FIRSTY'
p413
F69.0
sS'$NIST SOURCE'
p414
S'MSDC'
p415
sS'MW'
p416
F100.0
sS'YUNITS'
p417
S'RELATIVE INTENSITY'
p418
sS'OWNER'
p419
S'NIST Mass Spectrometry Data Center'
p420
ssS'Nonane'
p421
(dp422
S'GROUP'
p423
S'Hydrocarbons'
p424
sS'TITLE'
p425
g421
sS'CAS REGISTRY NO'
p426
F111.0
sS'NPOINTS'
p427
F42.0
sg8
S'./library/111-84-2-Mass.jdx'
p428
sS'YFACTOR'
p429
F1.0
sS'$NIST MASS SPEC NO'
p430
F228006.0
sS'MOLFORM'
p431
S'C9 H20'
p432
sS'PEAK TABLE'
p433
((lp434
F15.0
aF26.0
aF27.0
aF28.0
aF29.0
aF30.0
aF37.0
aF38.0
aF39.0
aF40.0
aF41.0
aF42.0
aF43.0
aF44.0
aF50.0
aF51.0
aF52.0
aF53.0
aF54.0
aF55.0
aF56.0
aF57.0
aF58.0
aF65.0
aF67.0
aF68.0
aF69.0
aF70.0
aF71.0
aF72.0
aF77.0
aF81.0
aF83.0
aF84.0
aF85.0
aF86.0
aF97.0
aF98.0
aF99.0
aF100.0
aF128.0
aF129.0
a(lp435
F50.0
aF50.0
aF1199.0
aF99.0
aF2069.0
aF50.0
aF10.0
aF20.0
aF699.0
aF119.0
aF3059.0
aF1209.0
aF9999.0
aF339.0
aF20.0
aF40.0
aF20.0
aF129.0
aF80.0
aF1079.0
aF1709.0
aF7619.0
aF369.0
aF10.0
aF40.0
aF20.0
aF259.0
aF1239.0
aF2239.0
aF139.0
aF10.0
aF10.0
aF30.0
aF689.0
aF2599.0
aF179.0
aF20.0
aF329.0
aF579.0
aF40.0
aF439.0
aF50.0
atp436
sS'LASTX'
p437
F129.0
sS'XFACTOR'
p438
F1.0
sS'ORIGIN'
p439
S'Japan AIST/NIMC Database- Spectrum MS-NW-3673'
p440
sS'JCAMP-DX'
p441
F4.24
sS'MINX'
p442
F15.0
sS'MINY'
p443
F10.0
sS'MAXY'
p444
F9999.0
sS'DATA TYPE'
p445
S'MASS SPECTRUM'
p446
sS'FIRSTX'
p447
F15.0
sS'MAXX'
p448
F129.0
sS'XUNITS'
p449
S'M/Z'
p450
sS'FIRSTY'
p451
F50.0
sS'$NIST SOURCE'
p452
S'MSDC'
p453
sS'MW'
p454
F128.0
sS'YUNITS'
p455
S'RELATIVE INTENSITY'
p456
sS'OWNER'
p457
S'NIST Mass Spectrometry Data Center'
p458
ssS'Decane'
p459
(dp460
S'GROUP'
p461
S'Hydrocarbons'
p462
sS'TITLE'
p463
g459
sS'CAS REGISTRY NO'
p464
F124.0
sS'NPOINTS'
p465
F43.0
sg8
S'./library/124-18-5-Mass.jdx'
p466
sS'YFACTOR'
p467
F1.0
sS'$NIST MASS SPEC NO'
p468
F114147.0
sS'MOLFORM'
p469
S'C10 H22'
p470
sS'PEAK TABLE'
p471
((lp472
F14.0
aF15.0
aF16.0
aF27.0
aF29.0
aF30.0
aF39.0
aF41.0
aF42.0
aF43.0
aF44.0
aF50.0
aF51.0
aF52.0
aF53.0
aF54.0
aF55.0
aF56.0
aF57.0
aF58.0
aF65.0
aF66.0
aF67.0
aF68.0
aF69.0
aF70.0
aF71.0
aF72.0
aF77.0
aF79.0
aF82.0
aF83.0
aF84.0
aF85.0
aF86.0
aF98.0
aF99.0
aF100.0
aF112.0
aF113.0
aF114.0
aF142.0
aF143.0
a(lp473
F80.0
aF45.0
aF50.0
aF1654.0
aF2498.0
aF71.0
aF1690.0
aF6395.0
aF2049.0
aF8029.0
aF348.0
aF46.0
aF144.0
aF73.0
aF539.0
aF330.0
aF2484.0
aF2702.0
aF9999.0
aF465.0
aF109.0
aF41.0
aF193.0
aF132.0
aF801.0
aF2000.0
aF4436.0
aF227.0
aF55.0
aF39.0
aF48.0
aF212.0
aF1278.0
aF2939.0
aF189.0
aF715.0
aF830.0
aF78.0
aF265.0
aF460.0
aF42.0
aF740.0
aF90.0
atp474
sS'LASTX'
p475
F143.0
sS'XFACTOR'
p476
F1.0
sS'ORIGIN'
p477
S'NIST Mass Spectrometry Data Center, 1990.'
p478
sS'JCAMP-DX'
p479
F4.24
sS'MINX'
p480
F14.0
sS'MINY'
p481
F39.0
sS'MAXY'
p482
F9999.0
sS'DATA TYPE'
p483
S'MASS SPECTRUM'
p484
sS'FIRSTX'
p485
F14.0
sS'MAXX'
p486
F143.0
sS'XUNITS'
p487
S'M/Z'
p488
sS'FIRSTY'
p489
F80.0
sS'$NIST SOURCE'
p490
S'MSDC'
p491
sS'MW'
p492
F142.0
sS'YUNITS'
p493
S'RELATIVE INTENSITY'
p494
sS'OWNER'
p495
S'NIST Mass Spectrometry Data Center'
p496
ssS'Pentane, dodecafluoro-'
p497
(dp498
S'GROUP'
p499
S'Fluorocarbons'
p500
sS'TITLE'
p501
g497
sS'CAS REGISTRY NO'
p502
F678.0
sS'NPOINTS'
p503
F24.0
sg8
S'./library/678-26-2-Mass.jdx'
p504
sS'YFACTOR'
p505
F1.0
sS'$NIST MASS SPEC NO'
p506
F13898.0
sS'MOLFORM'
p507
S'C5 F12'
p508
sS'PEAK TABLE'
p509
((lp510
F19.0
aF31.0
aF50.0
aF55.0
aF62.0
aF69.0
aF74.0
aF81.0
aF93.0
aF100.0
aF112.0
aF119.0
aF124.0
aF125.0
aF131.0
aF143.0
aF150.0
aF162.0
aF169.0
aF181.0
aF200.0
aF219.0
aF269.0
aF288.0
a(lp511
F10.0
aF611.0
aF230.0
aF10.0
aF30.0
aF9999.0
aF20.0
aF50.0
aF160.0
aF651.0
aF30.0
aF2993.0
aF10.0
aF10.0
aF661.0
aF10.0
aF120.0
aF10.0
aF1051.0
aF330.0
aF30.0
aF30.0
aF80.0
aF10.0
atp512
sS'LASTX'
p513
F288.0
sS'XFACTOR'
p514
F1.0
sS'JCAMP-DX'
p515
F4.24
sS'MINX'
p516
F19.0
sS'MINY'
p517
F10.0
sS'MAXY'
p518
F9999.0
sS'DATA TYPE'
p519
S'MASS SPECTRUM'
p520
sS'FIRSTX'
p521
F19.0
sS'MAXX'
p522
F288.0
sS'XUNITS'
p523
S'M/Z'
p524
sS'FIRSTY'
p525
F10.0
sS'$NIST SOURCE'
p526
S'MSDC'
p527
sS'MW'
p528
F288.0
sS'YUNITS'
p529
S'RELATIVE INTENSITY'
p530
sS'OWNER'
p531
S'NIST Mass Spectrometry Data Center'
p532
ssS'Helium'
p533
(dp534
S'GROUP'
p535
S'Noble Gases'
p536
sS'TITLE'
p537
g533
sg8
S'./library/Helium.jdx'
p538
sS'MW'
p539
F4.0
sS'YUNITS'
p540
S'RELATIVE INTENSITY'
p541
sS'MOLFORM'
p542
S'He'
p543
sS'DATA TYPE'
p544
S'MASS SPECTRUM'
p545
sS'PEAK TABLE'
p546
((lp547
F4.0
a(lp548
F1.0
atp549
ssS'Propane'
p550
(dp551
S'GROUP'
p552
S'Hydrocarbons'
p553
sS'TITLE'
p554
g550
sS'CAS REGISTRY NO'
p555
F74.0
sS'NPOINTS'
p556
F25.0
sg8
S'./library/74-98-6-Mass.jdx'
p557
sS'YFACTOR'
p558
F1.0
sS'$NIST MASS SPEC NO'
p559
F18863.0
sS'MOLFORM'
p560
S'C3 H8'
p561
sS'PEAK TABLE'
p562
((lp563
F12.0
aF13.0
aF14.0
aF15.0
aF16.0
aF19.0
aF20.0
aF21.0
aF24.0
aF25.0
aF26.0
aF27.0
aF28.0
aF29.0
aF30.0
aF36.0
aF37.0
aF38.0
aF39.0
aF40.0
aF41.0
aF42.0
aF43.0
aF44.0
aF45.0
a(lp564
F30.0
aF60.0
aF220.0
aF721.0
aF40.0
aF70.0
aF80.0
aF10.0
aF10.0
aF50.0
aF911.0
aF4194.0
aF5875.0
aF9999.0
aF220.0
aF30.0
aF300.0
aF530.0
aF1892.0
aF280.0
aF1341.0
aF601.0
aF2312.0
aF2742.0
aF90.0
atp565
sS'LASTX'
p566
F45.0
sS'XFACTOR'
p567
F1.0
sS'JCAMP-DX'
p568
F4.24
sS'MINX'
p569
F12.0
sS'MINY'
p570
F10.0
sS'MAXY'
p571
F9999.0
sS'DATA TYPE'
p572
S'MASS SPECTRUM'
p573
sS'FIRSTX'
p574
F12.0
sS'MAXX'
p575
F45.0
sS'XUNITS'
p576
S'M/Z'
p577
sS'FIRSTY'
p578
F30.0
sS'$NIST SOURCE'
p579
S'MSDC'
p580
sS'MW'
p581
F44.0
sS'YUNITS'
p582
S'RELATIVE INTENSITY'
p583
sS'OWNER'
p584
S'NIST Mass Spectrometry Data Center'
p585
ssS'Ethene, 1,1-difluoro-'
p586
(dp587
S'TITLE'
p588
g586
sS'CAS REGISTRY NO'
p589
F75.0
sS'NPOINTS'
p590
F24.0
sg8
S'./library/75-38-7-Mass.jdx'
p591
sS'YFACTOR'
p592
F1.0
sS'$NIST MASS SPEC NO'
p593
F19017.0
sS'MOLFORM'
p594
S'C2 H2 F2'
p595
sS'PEAK TABLE'
p596
((lp597
F12.0
aF13.0
aF14.0
aF15.0
aF19.0
aF24.0
aF25.0
aF26.0
aF27.0
aF31.0
aF32.0
aF33.0
aF34.0
aF43.0
aF44.0
aF45.0
aF46.0
aF50.0
aF51.0
aF52.0
aF62.0
aF63.0
aF64.0
aF65.0
a(lp598
F550.0
aF510.0
aF2172.0
aF20.0
aF90.0
aF300.0
aF450.0
aF641.0
aF10.0
aF5095.0
aF300.0
aF4204.0
aF50.0
aF310.0
aF3863.0
aF6696.0
aF140.0
aF350.0
aF140.0
aF10.0
aF160.0
aF1421.0
aF9999.0
aF220.0
atp599
sS'LASTX'
p600
F65.0
sS'XFACTOR'
p601
F1.0
sS'JCAMP-DX'
p602
F4.24
sS'MINX'
p603
F12.0
sS'MINY'
p604
F10.0
sS'MAXY'
p605
F9999.0
sS'DATA TYPE'
p606
S'MASS SPECTRUM'
p607
sS'FIRSTX'
p608
F12.0
sS'MAXX'
p609
F65.0
sS'XUNITS'
p610
S'M/Z'
p611
sS'FIRSTY'
p612
F550.0
sS'$NIST SOURCE'
p613
S'MSDC'
p614
sS'MW'
p615
F64.0
sS'YUNITS'
p616
S'RELATIVE INTENSITY'
p617
sS'OWNER'
p618
S'NIST Mass Spectrometry Data Center'
p619
ssS'Water'
p620
(dp621
S'GROUP'
p622
S'Air'
p623
sS'TITLE'
p624
g620
sS'CAS REGISTRY NO'
p625
F7732.0
sS'NPOINTS'
p626
F5.0
sg8
S'./library/7732-18-5-Mass.jdx'
p627
sS'YFACTOR'
p628
F1.0
sS'$NIST MASS SPEC NO'
p629
F7.0
sS'MOLFORM'
p630
S'H2 O'
p631
sS'PEAK TABLE'
p632
((lp633
F16.0
aF17.0
aF18.0
aF19.0
aF20.0
a(lp634
F90.0
aF2122.0
aF9999.0
aF50.0
aF30.0
atp635
sS'LASTX'
p636
F20.0
sS'XFACTOR'
p637
F1.0
sS'JCAMP-DX'
p638
F4.24
sS'MINX'
p639
F16.0
sS'MINY'
p640
F30.0
sS'MAXY'
p641
F9999.0
sS'DATA TYPE'
p642
S'MASS SPECTRUM'
p643
sS'FIRSTX'
p644
F16.0
sS'MAXX'
p645
F20.0
sS'XUNITS'
p646
S'M/Z'
p647
sS'FIRSTY'
p648
F90.0
sS'$NIST SOURCE'
p649
S'MSDC'
p650
sS'MW'
p651
F18.0
sS'YUNITS'
p652
S'RELATIVE INTENSITY'
p653
sS'OWNER'
p654
S'NIST Mass Spectrometry Data Center'
p655
ssS'Argon'
p656
(dp657
S'GROUP'
p658
S'Noble Gases'
p659
sS'TITLE'
p660
g656
sS'CAS REGISTRY NO'
p661
F7440.0
sS'NPOINTS'
p662
F4.0
sg8
S'./library/7440-37-1-Mass.jdx'
p663
sS'YFACTOR'
p664
F1.0
sS'$NIST MASS SPEC NO'
p665
F34321.0
sS'MOLFORM'
p666
S'Ar'
p667
sS'PEAK TABLE'
p668
((lp669
F20.0
aF36.0
aF38.0
aF40.0
a(lp670
F1462.0
aF30.0
aF5.0
aF9999.0
atp671
sS'LASTX'
p672
F40.0
sS'XFACTOR'
p673
F1.0
sS'ORIGIN'
p674
S'DOW CHEMICAL COMPANY / ASTM E14-UNCERTIFIED SPECTRUM 1'
p675
sS'JCAMP-DX'
p676
F4.24
sS'MINX'
p677
F20.0
sS'MINY'
p678
F5.0
sS'MAXY'
p679
F9999.0
sS'DATA TYPE'
p680
S'MASS SPECTRUM'
p681
sS'FIRSTX'
p682
F20.0
sS'MAXX'
p683
F40.0
sS'XUNITS'
p684
S'M/Z'
p685
sS'FIRSTY'
p686
F1462.0
sS'$NIST SOURCE'
p687
S'MSDC'
p688
sS'MW'
p689
F40.0
sS'YUNITS'
p690
S'RELATIVE INTENSITY'
p691
sS'OWNER'
p692
S'NIST Mass Spectrometry Data Center'
p693
ssS'Pentane'
p694
(dp695
S'GROUP'
p696
S'Hydrocarbons'
p697
sS'TITLE'
p698
g694
sS'CAS REGISTRY NO'
p699
F109.0
sS'NPOINTS'
p700
F36.0
sg8
S'./library/109-66-0-Mass.jdx'
p701
sS'YFACTOR'
p702
F1.0
sS'$NIST MASS SPEC NO'
p703
F291244.0
sS'MOLFORM'
p704
S'C5 H12'
p705
sS'PEAK TABLE'
p706
((lp707
F14.0
aF15.0
aF25.0
aF26.0
aF27.0
aF28.0
aF29.0
aF30.0
aF37.0
aF38.0
aF39.0
aF40.0
aF41.0
aF42.0
aF43.0
aF44.0
aF49.0
aF50.0
aF51.0
aF52.0
aF53.0
aF54.0
aF55.0
aF56.0
aF57.0
aF58.0
aF61.0
aF62.0
aF63.0
aF65.0
aF67.0
aF69.0
aF70.0
aF71.0
aF72.0
aF73.0
a(lp708
F10.0
aF90.0
aF10.0
aF210.0
aF1890.0
aF280.0
aF1360.0
aF30.0
aF80.0
aF210.0
aF1930.0
aF320.0
aF5759.0
aF6119.0
aF9999.0
aF380.0
aF20.0
aF130.0
aF160.0
aF50.0
aF210.0
aF60.0
aF540.0
aF410.0
aF1990.0
aF90.0
aF20.0
aF30.0
aF30.0
aF20.0
aF10.0
aF10.0
aF10.0
aF80.0
aF1290.0
aF70.0
atp709
sS'LASTX'
p710
F73.0
sS'XFACTOR'
p711
F1.0
sS'ORIGIN'
p712
S'NIST Mass Spectrometry Data Center, 1998.'
p713
sS'JCAMP-DX'
p714
F4.24
sS'MINX'
p715
F14.0
sS'MINY'
p716
F10.0
sS'MAXY'
p717
F9999.0
sS'DATA TYPE'
p718
S'MASS SPECTRUM'
p719
sS'FIRSTX'
p720
F14.0
sS'MAXX'
p721
F73.0
sS'XUNITS'
p722
S'M/Z'
p723
sS'FIRSTY'
p724
F10.0
sS'$NIST SOURCE'
p725
S'MSDC'
p726
sS'MW'
p727
F72.0
sS'YUNITS'
p728
S'RELATIVE INTENSITY'
p729
sS'OWNER'
p730
S'NIST Mass Spectrometry Data Center'
p731
ssS'Ethanol'
p732
(dp733
S'GROUP'
p734
S'Hydrocarbons'
p735
sS'TITLE'
p736
g732
sS'CAS REGISTRY NO'
p737
F64.0
sS'NPOINTS'
p738
F23.0
sg8
S'./library/64-17-5-Mass.jdx'
p739
sS'YFACTOR'
p740
F1.0
sS'$NIST MASS SPEC NO'
p741
F118507.0
sS'MOLFORM'
p742
S'C2 H6 O'
p743
sS'PEAK TABLE'
p744
((lp745
F12.0
aF13.0
aF14.0
aF15.0
aF17.0
aF18.0
aF19.0
aF24.0
aF25.0
aF26.0
aF27.0
aF28.0
aF29.0
aF30.0
aF31.0
aF33.0
aF41.0
aF42.0
aF43.0
aF44.0
aF45.0
aF46.0
aF47.0
a(lp746
F20.0
aF139.0
aF145.0
aF664.0
aF70.0
aF55.0
aF279.0
aF61.0
aF246.0
aF985.0
aF2241.0
aF345.0
aF2985.0
aF812.0
aF9999.0
aF31.0
aF137.0
aF474.0
aF1144.0
aF71.0
aF5149.0
aF2163.0
aF73.0
atp747
sS'LASTX'
p748
F47.0
sS'XFACTOR'
p749
F1.0
sS'ORIGIN'
p750
S'NIST Mass Spectrometry Data Center, 1990.'
p751
sS'JCAMP-DX'
p752
F4.24
sS'MINX'
p753
F12.0
sS'MINY'
p754
F20.0
sS'MAXY'
p755
F9999.0
sS'DATA TYPE'
p756
S'MASS SPECTRUM'
p757
sS'FIRSTX'
p758
F12.0
sS'MAXX'
p759
F47.0
sS'XUNITS'
p760
S'M/Z'
p761
sS'FIRSTY'
p762
F20.0
sS'$NIST SOURCE'
p763
S'MSDC'
p764
sS'MW'
p765
F46.0
sS'YUNITS'
p766
S'RELATIVE INTENSITY'
p767
sS'OWNER'
p768
S'NIST Mass Spectrometry Data Center'
p769
ssS'Carbon monoxide'
p770
(dp771
S'GROUP'
p772
S'Air'
p773
sS'TITLE'
p774
g770
sS'CAS REGISTRY NO'
p775
F630.0
sS'NPOINTS'
p776
F4.0
sg8
S'./library/630-08-0-Mass.jdx'
p777
sS'YFACTOR'
p778
F1.0
sS'$NIST MASS SPEC NO'
p779
F19.0
sS'MOLFORM'
p780
S'C O'
p781
sS'PEAK TABLE'
p782
((lp783
F12.0
aF16.0
aF28.0
aF29.0
a(lp784
F470.0
aF170.0
aF9999.0
aF120.0
atp785
sS'LASTX'
p786
F29.0
sS'XFACTOR'
p787
F1.0
sS'JCAMP-DX'
p788
F4.24
sS'MINX'
p789
F12.0
sS'MINY'
p790
F120.0
sS'MAXY'
p791
F9999.0
sS'DATA TYPE'
p792
S'MASS SPECTRUM'
p793
sS'FIRSTX'
p794
F12.0
sS'MAXX'
p795
F29.0
sS'XUNITS'
p796
S'M/Z'
p797
sS'FIRSTY'
p798
F470.0
sS'$NIST SOURCE'
p799
S'MSDC'
p800
sS'MW'
p801
F28.0
sS'YUNITS'
p802
S'RELATIVE INTENSITY'
p803
sS'OWNER'
p804
S'NIST Mass Spectrometry Data Center'
p805
ssS'Pyridine'
p806
(dp807
S'GROUP'
p808
S'Fluorocarbons'
p809
sS'TITLE'
p810
g806
sS'CAS REGISTRY NO'
p811
F110.0
sS'NPOINTS'
p812
F27.0
sg8
S'./library/110-86-1-Mass.jdx'
p813
sS'YFACTOR'
p814
F1.0
sS'$NIST MASS SPEC NO'
p815
F227742.0
sS'MOLFORM'
p816
S'C5 H5 N'
p817
sS'PEAK TABLE'
p818
((lp819
F25.0
aF26.0
aF27.0
aF28.0
aF36.0
aF37.0
aF38.0
aF39.0
aF40.0
aF48.0
aF49.0
aF50.0
aF51.0
aF52.0
aF53.0
aF54.0
aF62.0
aF63.0
aF64.0
aF74.0
aF75.0
aF76.0
aF77.0
aF78.0
aF79.0
aF80.0
aF81.0
a(lp820
F40.0
aF469.0
aF139.0
aF40.0
aF10.0
aF139.0
aF179.0
aF599.0
aF50.0
aF30.0
aF259.0
aF1359.0
aF2229.0
aF5599.0
aF609.0
aF20.0
aF10.0
aF10.0
aF30.0
aF20.0
aF159.0
aF119.0
aF30.0
aF1129.0
aF9999.0
aF629.0
aF10.0
atp821
sS'LASTX'
p822
F81.0
sS'XFACTOR'
p823
F1.0
sS'ORIGIN'
p824
S'Japan AIST/NIMC Database- Spectrum MS-NW- 79'
p825
sS'JCAMP-DX'
p826
F4.24
sS'MINX'
p827
F25.0
sS'MINY'
p828
F10.0
sS'MAXY'
p829
F9999.0
sS'DATA TYPE'
p830
S'MASS SPECTRUM'
p831
sS'FIRSTX'
p832
F25.0
sS'MAXX'
p833
F81.0
sS'XUNITS'
p834
S'M/Z'
p835
sS'FIRSTY'
p836
F40.0
sS'$NIST SOURCE'
p837
S'MSDC'
p838
sS'MW'
p839
F79.0
sS'YUNITS'
p840
S'RELATIVE INTENSITY'
p841
sS'OWNER'
p842
S'NIST Mass Spectrometry Data Center'
p843
ssS'Tetrafluoromethane'
p844
(dp845
S'GROUP'
p846
S'Fluorocarbons'
p847
sS'TITLE'
p848
g844
sS'CAS REGISTRY NO'
p849
F75.0
sS'NPOINTS'
p850
F8.0
sg8
S'./library/75-73-0-Mass.jdx'
p851
sS'YFACTOR'
p852
F1.0
sS'$NIST MASS SPEC NO'
p853
F701.0
sS'MOLFORM'
p854
S'C F4'
p855
sS'PEAK TABLE'
p856
((lp857
F19.0
aF31.0
aF32.0
aF50.0
aF51.0
aF69.0
aF70.0
aF88.0
a(lp858
F671.0
aF490.0
aF10.0
aF1181.0
aF10.0
aF9999.0
aF110.0
aF10.0
atp859
sS'LASTX'
p860
F88.0
sS'XFACTOR'
p861
F1.0
sS'JCAMP-DX'
p862
F4.24
sS'MINX'
p863
F19.0
sS'MINY'
p864
F10.0
sS'MAXY'
p865
F9999.0
sS'DATA TYPE'
p866
S'MASS SPECTRUM'
p867
sS'FIRSTX'
p868
F19.0
sS'MAXX'
p869
F88.0
sS'XUNITS'
p870
S'M/Z'
p871
sS'FIRSTY'
p872
F671.0
sS'$NIST SOURCE'
p873
S'MSDC'
p874
sS'MW'
p875
F88.0
sS'YUNITS'
p876
S'RELATIVE INTENSITY'
p877
sS'OWNER'
p878
S'NIST Mass Spectrometry Data Center'
p879
ssS'Acetone'
p880
(dp881
S'GROUP'
p882
S'Solvents'
p883
sS'TITLE'
p884
g880
sS'CAS REGISTRY NO'
p885
F67.0
sS'NPOINTS'
p886
F22.0
sg8
S'./library/67-64-1-Mass.jdx'
p887
sS'YFACTOR'
p888
F1.0
sS'$NIST MASS SPEC NO'
p889
F114413.0
sS'MOLFORM'
p890
S'C3 H6 O'
p891
sS'PEAK TABLE'
p892
((lp893
F13.0
aF14.0
aF15.0
aF16.0
aF25.0
aF26.0
aF27.0
aF28.0
aF29.0
aF31.0
aF36.0
aF37.0
aF38.0
aF39.0
aF40.0
aF41.0
aF42.0
aF43.0
aF44.0
aF57.0
aF58.0
aF59.0
a(lp894
F89.0
aF455.0
aF1201.0
aF85.0
aF129.0
aF496.0
aF707.0
aF121.0
aF362.0
aF45.0
aF70.0
aF251.0
aF281.0
aF463.0
aF128.0
aF278.0
aF961.0
aF9999.0
aF246.0
aF47.0
aF2484.0
aF93.0
atp895
sS'LASTX'
p896
F59.0
sS'XFACTOR'
p897
F1.0
sS'ORIGIN'
p898
S'NIST Mass Spectrometry Data Center, 1990.'
p899
sS'JCAMP-DX'
p900
F4.24
sS'MINX'
p901
F13.0
sS'MINY'
p902
F45.0
sS'MAXY'
p903
F9999.0
sS'DATA TYPE'
p904
S'MASS SPECTRUM'
p905
sS'FIRSTX'
p906
F13.0
sS'MAXX'
p907
F59.0
sS'XUNITS'
p908
S'M/Z'
p909
sS'FIRSTY'
p910
F89.0
sS'$NIST SOURCE'
p911
S'MSDC'
p912
sS'MW'
p913
F58.0
sS'YUNITS'
p914
S'RELATIVE INTENSITY'
p915
sS'OWNER'
p916
S'NIST Mass Spectrometry Data Center'
p917
ssS'Anthracene'
p918
(dp919
S'GROUP'
p920
S'Hydrocarbons'
p921
sS'TITLE'
p922
g918
sS'CAS REGISTRY NO'
p923
F120.0
sS'NPOINTS'
p924
F62.0
sg8
S'./library/120-12-7-Mass.jdx'
p925
sS'YFACTOR'
p926
F1.0
sS'$NIST MASS SPEC NO'
p927
F228201.0
sS'MOLFORM'
p928
S'C14 H10'
p929
sS'PEAK TABLE'
p930
((lp931
F27.0
aF28.0
aF38.0
aF39.0
aF50.0
aF51.0
aF52.0
aF61.0
aF62.0
aF63.0
aF64.0
aF65.0
aF69.0
aF73.0
aF74.0
aF75.0
aF76.0
aF77.0
aF78.0
aF83.0
aF85.0
aF86.0
aF87.0
aF88.0
aF89.0
aF90.0
aF98.0
aF99.0
aF100.0
aF101.0
aF102.0
aF110.0
aF111.0
aF113.0
aF114.0
aF115.0
aF122.0
aF123.0
aF124.0
aF125.0
aF126.0
aF127.0
aF128.0
aF137.0
aF138.0
aF139.0
aF140.0
aF149.0
aF150.0
aF151.0
aF152.0
aF153.0
aF163.0
aF164.0
aF174.0
aF175.0
aF176.0
aF177.0
aF178.0
aF179.0
aF180.0
aF181.0
a(lp932
F20.0
aF10.0
aF30.0
aF109.0
aF129.0
aF129.0
aF30.0
aF40.0
aF129.0
aF289.0
aF20.0
aF20.0
aF20.0
aF10.0
aF219.0
aF299.0
aF619.0
aF80.0
aF10.0
aF50.0
aF30.0
aF99.0
aF169.0
aF439.0
aF759.0
aF10.0
aF119.0
aF90.0
aF50.0
aF50.0
aF60.0
aF40.0
aF50.0
aF60.0
aF20.0
aF50.0
aF40.0
aF20.0
aF20.0
aF50.0
aF149.0
aF60.0
aF80.0
aF30.0
aF30.0
aF209.0
aF80.0
aF70.0
aF419.0
aF629.0
aF689.0
aF80.0
aF50.0
aF20.0
aF129.0
aF199.0
aF1409.0
aF799.0
aF9999.0
aF1569.0
aF149.0
aF30.0
atp933
sS'LASTX'
p934
F181.0
sS'XFACTOR'
p935
F1.0
sS'ORIGIN'
p936
S'Japan AIST/NIMC Database- Spectrum MS-NW- 132'
p937
sS'JCAMP-DX'
p938
F4.24
sS'MINX'
p939
F27.0
sS'MINY'
p940
F10.0
sS'MAXY'
p941
F9999.0
sS'DATA TYPE'
p942
S'MASS SPECTRUM'
p943
sS'FIRSTX'
p944
F27.0
sS'MAXX'
p945
F181.0
sS'XUNITS'
p946
S'M/Z'
p947
sS'FIRSTY'
p948
F20.0
sS'$NIST SOURCE'
p949
S'MSDC'
p950
sS'MW'
p951
F178.0
sS'YUNITS'
p952
S'RELATIVE INTENSITY'
p953
sS'OWNER'
p954
S'NIST Mass Spectrometry Data Center'
p955
ssS'Bis(2-ethylhexyl) phthalate'
p956
(dp957
S'GROUP'
p958
S'Hydrocarbons'
p959
sS'TITLE'
p960
g956
sS'CAS REGISTRY NO'
p961
F117.0
sS'NPOINTS'
p962
F83.0
sg8
S'./library/117-81-7-Mass.jdx'
p963
sS'YFACTOR'
p964
F1.0
sS'$NIST MASS SPEC NO'
p965
F229113.0
sS'MOLFORM'
p966
S'C24 H38 O4'
p967
sS'PEAK TABLE'
p968
((lp969
F17.0
aF18.0
aF27.0
aF28.0
aF29.0
aF30.0
aF31.0
aF39.0
aF40.0
aF41.0
aF42.0
aF43.0
aF44.0
aF50.0
aF51.0
aF53.0
aF54.0
aF55.0
aF56.0
aF57.0
aF58.0
aF59.0
aF65.0
aF66.0
aF67.0
aF68.0
aF69.0
aF70.0
aF71.0
aF72.0
aF75.0
aF76.0
aF77.0
aF78.0
aF79.0
aF81.0
aF82.0
aF83.0
aF84.0
aF85.0
aF91.0
aF92.0
aF93.0
aF94.0
aF95.0
aF97.0
aF98.0
aF104.0
aF105.0
aF106.0
aF110.0
aF111.0
aF112.0
aF113.0
aF114.0
aF115.0
aF121.0
aF122.0
aF123.0
aF129.0
aF132.0
aF133.0
aF135.0
aF148.0
aF149.0
aF150.0
aF151.0
aF162.0
aF163.0
aF167.0
aF168.0
aF169.0
aF179.0
aF180.0
aF261.0
aF262.0
aF263.0
aF279.0
aF280.0
aF281.0
aF389.0
aF390.0
aF391.0
a(lp970
F10.0
aF30.0
aF219.0
aF90.0
aF869.0
aF20.0
aF10.0
aF159.0
aF30.0
aF1709.0
aF319.0
aF2429.0
aF80.0
aF50.0
aF30.0
aF70.0
aF80.0
aF1259.0
aF659.0
aF3519.0
aF149.0
aF10.0
aF169.0
aF10.0
aF99.0
aF90.0
aF579.0
aF2009.0
aF2499.0
aF139.0
aF20.0
aF289.0
aF109.0
aF10.0
aF30.0
aF40.0
aF159.0
aF779.0
aF429.0
aF40.0
aF10.0
aF10.0
aF189.0
aF10.0
aF20.0
aF70.0
aF10.0
aF549.0
aF209.0
aF10.0
aF20.0
aF30.0
aF1069.0
aF1569.0
aF129.0
aF10.0
aF189.0
aF169.0
aF60.0
aF10.0
aF209.0
aF50.0
aF10.0
aF20.0
aF9999.0
aF1159.0
aF119.0
aF50.0
aF30.0
aF4979.0
aF449.0
aF50.0
aF10.0
aF20.0
aF80.0
aF60.0
aF10.0
aF3229.0
aF569.0
aF70.0
aF80.0
aF169.0
aF40.0
atp971
sS'LASTX'
p972
F391.0
sS'XFACTOR'
p973
F1.0
sS'ORIGIN'
p974
S'Japan AIST/NIMC Database- Spectrum MS-NW-8633'
p975
sS'JCAMP-DX'
p976
F4.24
sS'MINX'
p977
F17.0
sS'MINY'
p978
F10.0
sS'MAXY'
p979
F9999.0
sS'DATA TYPE'
p980
S'MASS SPECTRUM'
p981
sS'FIRSTX'
p982
F17.0
sS'MAXX'
p983
F391.0
sS'XUNITS'
p984
S'M/Z'
p985
sS'FIRSTY'
p986
F10.0
sS'$NIST SOURCE'
p987
S'MSDC'
p988
sS'MW'
p989
F390.0
sS'YUNITS'
p990
S'RELATIVE INTENSITY'
p991
sS'OWNER'
p992
S'NIST Mass Spectrometry Data Center'
p993
ssS'Sulfuryl fluoride'
p994
(dp995
S'GROUP'
p996
S'Fluorocarbons'
p997
sS'TITLE'
p998
g994
sS'CAS REGISTRY NO'
p999
F2699.0
sS'NPOINTS'
p1000
F26.0
sg8
S'./library/2699-79-8-Mass.jdx'
p1001
sS'YFACTOR'
p1002
F1.0
sS'$NIST MASS SPEC NO'
p1003
F19990.0
sS'MOLFORM'
p1004
S'F2 O2 S'
p1005
sS'PEAK TABLE'
p1006
((lp1007
F16.0
aF19.0
aF32.0
aF34.0
aF48.0
aF49.0
aF50.0
aF51.0
aF53.0
aF64.0
aF65.0
aF66.0
aF67.0
aF68.0
aF69.0
aF70.0
aF72.0
aF83.0
aF84.0
aF85.0
aF86.0
aF87.0
aF88.0
aF102.0
aF103.0
aF104.0
a(lp1008
F390.0
aF140.0
aF1261.0
aF30.0
aF791.0
aF10.0
aF30.0
aF280.0
aF10.0
aF761.0
aF10.0
aF30.0
aF2903.0
aF30.0
aF140.0
aF200.0
aF10.0
aF9999.0
aF80.0
aF500.0
aF180.0
aF30.0
aF30.0
aF7427.0
aF50.0
aF380.0
atp1009
sS'LASTX'
p1010
F104.0
sS'XFACTOR'
p1011
F1.0
sS'JCAMP-DX'
p1012
F4.24
sS'MINX'
p1013
F16.0
sS'MINY'
p1014
F10.0
sS'MAXY'
p1015
F9999.0
sS'DATA TYPE'
p1016
S'MASS SPECTRUM'
p1017
sS'FIRSTX'
p1018
F16.0
sS'MAXX'
p1019
F104.0
sS'XUNITS'
p1020
S'M/Z'
p1021
sS'FIRSTY'
p1022
F390.0
sS'$NIST SOURCE'
p1023
S'MSDC'
p1024
sS'MW'
p1025
F102.0
sS'YUNITS'
p1026
S'RELATIVE INTENSITY'
p1027
sS'OWNER'
p1028
S'NIST Mass Spectrometry Data Center'
p1029
ssS'Oxygen'
p1030
(dp1031
S'GROUP'
p1032
S'Air'
p1033
sS'TITLE'
p1034
g1030
sS'CAS REGISTRY NO'
p1035
F7782.0
sS'NPOINTS'
p1036
F2.0
sg8
S'./library/7782-44-7-Mass.jdx'
p1037
sS'YFACTOR'
p1038
F1.0
sS'$NIST MASS SPEC NO'
p1039
F61306.0
sS'MOLFORM'
p1040
S'O2'
p1041
sS'PEAK TABLE'
p1042
((lp1043
F16.0
aF32.0
a(lp1044
F2180.0
aF9999.0
atp1045
sS'LASTX'
p1046
F32.0
sS'XFACTOR'
p1047
F1.0
sS'ORIGIN'
p1048
S'D.HENNEBERG, MAX-PLANCK INSTITUTE, MULHEIM, WEST GERMANY'
p1049
sS'JCAMP-DX'
p1050
F4.24
sS'MINX'
p1051
F16.0
sS'MINY'
p1052
F2180.0
sS'MAXY'
p1053
F9999.0
sS'DATA TYPE'
p1054
S'MASS SPECTRUM'
p1055
sS'FIRSTX'
p1056
F16.0
sS'MAXX'
p1057
F32.0
sS'XUNITS'
p1058
S'M/Z'
p1059
sS'FIRSTY'
p1060
F2180.0
sS'$NIST SOURCE'
p1061
S'MSDC'
p1062
sS'MW'
p1063
F32.0
sS'YUNITS'
p1064
S'RELATIVE INTENSITY'
p1065
sS'OWNER'
p1066
S'NIST Mass Spectrometry Data Center'
p1067
ssS'Perfluorotributylamine'
p1068
(dp1069
S'TITLE'
p1070
g1068
sS'CAS REGISTRY NO'
p1071
F311.0
sS'NPOINTS'
p1072
F84.0
sg8
S'./library/311-89-7-Mass.jdx'
p1073
sS'YFACTOR'
p1074
F1.0
sS'$NIST MASS SPEC NO'
p1075
F233906.0
sS'MOLFORM'
p1076
S'C12 F27 N'
p1077
sS'PEAK TABLE'
p1078
((lp1079
F31.0
aF50.0
aF69.0
aF70.0
aF76.0
aF78.0
aF81.0
aF82.0
aF93.0
aF95.0
aF96.0
aF100.0
aF101.0
aF112.0
aF113.0
aF114.0
aF119.0
aF120.0
aF126.0
aF127.0
aF131.0
aF132.0
aF138.0
aF143.0
aF145.0
aF146.0
aF150.0
aF151.0
aF158.0
aF162.0
aF163.0
aF164.0
aF169.0
aF176.0
aF181.0
aF182.0
aF183.0
aF196.0
aF200.0
aF201.0
aF202.0
aF214.0
aF219.0
aF220.0
aF226.0
aF228.0
aF231.0
aF246.0
aF247.0
aF248.0
aF264.0
aF265.0
aF266.0
aF269.0
aF276.0
aF281.0
aF284.0
aF295.0
aF296.0
aF314.0
aF326.0
aF364.0
aF376.0
aF378.0
aF396.0
aF397.0
aF414.0
aF415.0
aF426.0
aF428.0
aF446.0
aF448.0
aF449.0
aF464.0
aF465.0
aF466.0
aF467.0
aF484.0
aF485.0
aF502.0
aF503.0
aF576.0
aF614.0
aF615.0
a(lp1080
F139.0
aF309.0
aF9999.0
aF129.0
aF20.0
aF10.0
aF30.0
aF70.0
aF80.0
aF40.0
aF40.0
aF1109.0
aF40.0
aF40.0
aF369.0
aF319.0
aF959.0
aF20.0
aF10.0
aF10.0
aF3839.0
aF129.0
aF10.0
aF10.0
aF50.0
aF10.0
aF199.0
aF10.0
aF20.0
aF10.0
aF40.0
aF90.0
aF289.0
aF70.0
aF159.0
aF10.0
aF90.0
aF10.0
aF20.0
aF289.0
aF10.0
aF80.0
aF6649.0
aF289.0
aF40.0
aF109.0
aF50.0
aF189.0
aF10.0
aF10.0
aF1119.0
aF60.0
aF30.0
aF10.0
aF10.0
aF20.0
aF10.0
aF10.0
aF20.0
aF30.0
aF20.0
aF20.0
aF60.0
aF40.0
aF139.0
aF10.0
aF379.0
aF30.0
aF60.0
aF10.0
aF30.0
aF139.0
aF10.0
aF179.0
aF10.0
aF209.0
aF20.0
aF189.0
aF10.0
aF519.0
aF50.0
aF30.0
aF99.0
aF10.0
atp1081
sS'LASTX'
p1082
F615.0
sS'XFACTOR'
p1083
F1.0
sS'ORIGIN'
p1084
S'Japan AIST/NIMC Database- Spectrum MS-IW-3056'
p1085
sS'JCAMP-DX'
p1086
F4.24
sS'MINX'
p1087
F31.0
sS'MINY'
p1088
F10.0
sS'MAXY'
p1089
F9999.0
sS'DATA TYPE'
p1090
S'MASS SPECTRUM'
p1091
sS'FIRSTX'
p1092
F31.0
sS'MAXX'
p1093
F615.0
sS'XUNITS'
p1094
S'M/Z'
p1095
sS'FIRSTY'
p1096
F139.0
sS'$NIST SOURCE'
p1097
S'MSDC'
p1098
sS'MW'
p1099
F671.0
sS'YUNITS'
p1100
S'RELATIVE INTENSITY'
p1101
sS'OWNER'
p1102
S'NIST Mass Spectrometry Data Center'
p1103
ssS'Nitrogen dioxide'
p1104
(dp1105
S'GROUP'
p1106
S'Air'
p1107
sS'TITLE'
p1108
g1104
sS'CAS REGISTRY NO'
p1109
F10102.0
sS'NPOINTS'
p1110
F5.0
sg8
S'./library/10102-44-0-Mass.jdx'
p1111
sS'YFACTOR'
p1112
F1.0
sS'$NIST MASS SPEC NO'
p1113
F82.0
sS'MOLFORM'
p1114
S'N O2'
p1115
sS'PEAK TABLE'
p1116
((lp1117
F14.0
aF16.0
aF30.0
aF46.0
aF47.0
a(lp1118
F961.0
aF2232.0
aF9999.0
aF3703.0
aF10.0
atp1119
sS'LASTX'
p1120
F47.0
sS'XFACTOR'
p1121
F1.0
sS'JCAMP-DX'
p1122
F4.24
sS'MINX'
p1123
F14.0
sS'MINY'
p1124
F10.0
sS'MAXY'
p1125
F9999.0
sS'DATA TYPE'
p1126
S'MASS SPECTRUM'
p1127
sS'FIRSTX'
p1128
F14.0
sS'MAXX'
p1129
F47.0
sS'XUNITS'
p1130
S'M/Z'
p1131
sS'FIRSTY'
p1132
F961.0
sS'$NIST SOURCE'
p1133
S'MSDC'
p1134
sS'MW'
p1135
F46.0
sS'YUNITS'
p1136
S'RELATIVE INTENSITY'
p1137
sS'OWNER'
p1138
S'NIST Mass Spectrometry Data Center'
p1139
ssS'Methyl fluoride'
p1140
(dp1141
S'GROUP'
p1142
S'Fluorocarbons'
p1143
sS'TITLE'
p1144
g1140
sS'CAS REGISTRY NO'
p1145
F593.0
sS'NPOINTS'
p1146
F9.0
sg8
S'./library/593-53-3-Mass.jdx'
p1147
sS'YFACTOR'
p1148
F1.0
sS'$NIST MASS SPEC NO'
p1149
F41.0
sS'MOLFORM'
p1150
S'C H3 F'
p1151
sS'PEAK TABLE'
p1152
((lp1153
F12.0
aF13.0
aF14.0
aF15.0
aF31.0
aF32.0
aF33.0
aF34.0
aF35.0
a(lp1154
F50.0
aF120.0
aF310.0
aF1161.0
aF771.0
aF440.0
aF8888.0
aF9999.0
aF120.0
atp1155
sS'LASTX'
p1156
F35.0
sS'XFACTOR'
p1157
F1.0
sS'JCAMP-DX'
p1158
F4.24
sS'MINX'
p1159
F12.0
sS'MINY'
p1160
F50.0
sS'MAXY'
p1161
F9999.0
sS'DATA TYPE'
p1162
S'MASS SPECTRUM'
p1163
sS'FIRSTX'
p1164
F12.0
sS'MAXX'
p1165
F35.0
sS'XUNITS'
p1166
S'M/Z'
p1167
sS'FIRSTY'
p1168
F50.0
sS'$NIST SOURCE'
p1169
S'MSDC'
p1170
sS'MW'
p1171
F34.0
sS'YUNITS'
p1172
S'RELATIVE INTENSITY'
p1173
sS'OWNER'
p1174
S'NIST Mass Spectrometry Data Center'
p1175
ssS'Nonanedioic acid, dimethyl ester'
p1176
(dp1177
S'GROUP'
p1178
S'Hydrocarbons'
p1179
sS'TITLE'
p1180
g1176
sS'CAS REGISTRY NO'
p1181
F1732.0
sS'NPOINTS'
p1182
F135.0
sg8
S'./library/1732-10-1-Mass.jdx'
p1183
sS'YFACTOR'
p1184
F1.0
sS'$NIST MASS SPEC NO'
p1185
F352562.0
sS'MOLFORM'
p1186
S'C11 H20 O4'
p1187
sS'PEAK TABLE'
p1188
((lp1189
F14.0
aF15.0
aF16.0
aF26.0
aF27.0
aF28.0
aF29.0
aF30.0
aF31.0
aF32.0
aF33.0
aF37.0
aF38.0
aF39.0
aF40.0
aF41.0
aF42.0
aF43.0
aF44.0
aF45.0
aF46.0
aF47.0
aF48.0
aF49.0
aF50.0
aF51.0
aF52.0
aF53.0
aF54.0
aF55.0
aF56.0
aF57.0
aF58.0
aF59.0
aF60.0
aF61.0
aF62.0
aF63.0
aF65.0
aF66.0
aF67.0
aF68.0
aF69.0
aF70.0
aF71.0
aF72.0
aF73.0
aF74.0
aF75.0
aF76.0
aF77.0
aF78.0
aF79.0
aF80.0
aF81.0
aF82.0
aF83.0
aF84.0
aF85.0
aF87.0
aF88.0
aF89.0
aF91.0
aF92.0
aF93.0
aF94.0
aF95.0
aF96.0
aF97.0
aF98.0
aF99.0
aF100.0
aF101.0
aF102.0
aF103.0
aF105.0
aF106.0
aF107.0
aF108.0
aF109.0
aF110.0
aF111.0
aF112.0
aF113.0
aF114.0
aF115.0
aF116.0
aF117.0
aF121.0
aF122.0
aF123.0
aF124.0
aF125.0
aF126.0
aF127.0
aF128.0
aF129.0
aF130.0
aF131.0
aF132.0
aF133.0
aF134.0
aF135.0
aF136.0
aF137.0
aF138.0
aF139.0
aF140.0
aF141.0
aF142.0
aF143.0
aF144.0
aF145.0
aF148.0
aF150.0
aF151.0
aF152.0
aF153.0
aF154.0
aF155.0
aF156.0
aF157.0
aF158.0
aF159.0
aF160.0
aF166.0
aF167.0
aF173.0
aF174.0
aF184.0
aF185.0
aF186.0
aF187.0
aF188.0
aF217.0
a(lp1190
F10.0
aF611.0
aF10.0
aF60.0
aF681.0
aF410.0
aF1081.0
aF70.0
aF230.0
aF10.0
aF50.0
aF10.0
aF30.0
aF1131.0
aF270.0
aF3563.0
aF1551.0
aF3363.0
aF200.0
aF671.0
aF30.0
aF40.0
aF60.0
aF70.0
aF30.0
aF80.0
aF50.0
aF571.0
aF430.0
aF9198.0
aF821.0
aF691.0
aF120.0
aF5525.0
aF180.0
aF50.0
aF10.0
aF330.0
aF120.0
aF80.0
aF1041.0
aF851.0
aF3673.0
aF430.0
aF280.0
aF90.0
aF811.0
aF8117.0
aF460.0
aF40.0
aF240.0
aF40.0
aF500.0
aF490.0
aF1161.0
aF1121.0
aF6986.0
aF3153.0
aF370.0
aF3353.0
aF490.0
aF40.0
aF90.0
aF110.0
aF330.0
aF50.0
aF571.0
aF1421.0
aF3373.0
aF2172.0
aF290.0
aF180.0
aF1201.0
aF100.0
aF10.0
aF70.0
aF130.0
aF540.0
aF120.0
aF250.0
aF921.0
aF6346.0
aF520.0
aF450.0
aF250.0
aF370.0
aF100.0
aF30.0
aF10.0
aF20.0
aF320.0
aF3103.0
aF2282.0
aF210.0
aF200.0
aF751.0
aF170.0
aF540.0
aF50.0
aF10.0
aF50.0
aF220.0
aF360.0
aF40.0
aF470.0
aF50.0
aF10.0
aF180.0
aF290.0
aF340.0
aF4844.0
aF420.0
aF30.0
aF20.0
aF20.0
aF210.0
aF9999.0
aF1361.0
aF140.0
aF30.0
aF621.0
aF110.0
aF40.0
aF10.0
aF40.0
aF20.0
aF10.0
aF10.0
aF10.0
aF370.0
aF4244.0
aF480.0
aF60.0
aF10.0
aF10.0
atp1191
sS'LASTX'
p1192
F217.0
sS'XFACTOR'
p1193
F1.0
sS'ORIGIN'
p1194
S'NIST Mass Spectrometry Data Center'
p1195
sS'JCAMP-DX'
p1196
F4.24
sS'MINX'
p1197
F14.0
sS'MINY'
p1198
F10.0
sS'MAXY'
p1199
F9999.0
sS'DATA TYPE'
p1200
S'MASS SPECTRUM'
p1201
sS'FIRSTX'
p1202
F14.0
sS'MAXX'
p1203
F217.0
sS'XUNITS'
p1204
S'M/Z'
p1205
sS'FIRSTY'
p1206
F10.0
sS'$NIST SOURCE'
p1207
S'MSDC'
p1208
sS'MW'
p1209
F216.0
sS'YUNITS'
p1210
S'RELATIVE INTENSITY'
p1211
sS'OWNER'
p1212
S'NIST Mass Spectrometry Data Center'
p1213
ssS'Phthalimide'
p1214
(dp1215
S'TITLE'
p1216
g1214
sS'CAS REGISTRY NO'
p1217
F85.0
sS'NPOINTS'
p1218
F59.0
sg8
S'./library/85-41-6-Mass.jdx'
p1219
sS'YFACTOR'
p1220
F1.0
sS'$NIST MASS SPEC NO'
p1221
F291737.0
sS'MOLFORM'
p1222
S'C8 H5 N O2'
p1223
sS'PEAK TABLE'
p1224
((lp1225
F25.0
aF26.0
aF27.0
aF28.0
aF29.0
aF31.0
aF36.0
aF37.0
aF38.0
aF39.0
aF40.0
aF41.0
aF42.0
aF43.0
aF44.0
aF45.0
aF48.0
aF49.0
aF50.0
aF51.0
aF52.0
aF53.0
aF54.0
aF59.0
aF61.0
aF62.0
aF63.0
aF64.0
aF65.0
aF66.0
aF70.0
aF72.0
aF73.0
aF74.0
aF75.0
aF76.0
aF77.0
aF78.0
aF85.0
aF86.0
aF87.0
aF88.0
aF89.0
aF90.0
aF91.0
aF92.0
aF93.0
aF99.0
aF100.0
aF101.0
aF102.0
aF103.0
aF104.0
aF105.0
aF106.0
aF119.0
aF147.0
aF148.0
aF149.0
a(lp1226
F10.0
aF50.0
aF50.0
aF50.0
aF20.0
aF10.0
aF40.0
aF450.0
aF530.0
aF210.0
aF30.0
aF10.0
aF40.0
aF220.0
aF90.0
aF250.0
aF40.0
aF370.0
aF3880.0
aF310.0
aF470.0
aF150.0
aF10.0
aF230.0
aF170.0
aF170.0
aF330.0
aF250.0
aF50.0
aF490.0
aF110.0
aF40.0
aF450.0
aF2050.0
aF1570.0
aF8249.0
aF750.0
aF30.0
aF10.0
aF20.0
aF20.0
aF20.0
aF10.0
aF330.0
aF80.0
aF180.0
aF10.0
aF20.0
aF20.0
aF30.0
aF60.0
aF3870.0
aF7359.0
aF560.0
aF30.0
aF30.0
aF9999.0
aF890.0
aF80.0
atp1227
sS'LASTX'
p1228
F149.0
sS'XFACTOR'
p1229
F1.0
sS'ORIGIN'
p1230
S'NIST Mass Spectrometry Data Center, 1998.'
p1231
sS'JCAMP-DX'
p1232
F4.24
sS'MINX'
p1233
F25.0
sS'MINY'
p1234
F10.0
sS'MAXY'
p1235
F9999.0
sS'DATA TYPE'
p1236
S'MASS SPECTRUM'
p1237
sS'FIRSTX'
p1238
F25.0
sS'MAXX'
p1239
F149.0
sS'XUNITS'
p1240
S'M/Z'
p1241
sS'FIRSTY'
p1242
F10.0
sS'$NIST SOURCE'
p1243
S'MSDC'
p1244
sS'MW'
p1245
F147.0
sS'YUNITS'
p1246
S'RELATIVE INTENSITY'
p1247
sS'OWNER'
p1248
S'NIST Mass Spectrometry Data Center'
p1249
ssS'Diethyl Phthalate'
p1250
(dp1251
S'GROUP'
p1252
S'Hydrocarbons'
p1253
sS'TITLE'
p1254
g1250
sS'CAS REGISTRY NO'
p1255
F84.0
sS'NPOINTS'
p1256
F65.0
sg8
S'./library/84-66-2-Mass.jdx'
p1257
sS'YFACTOR'
p1258
F1.0
sS'$NIST MASS SPEC NO'
p1259
F341377.0
sS'MOLFORM'
p1260
S'C12 H14 O4'
p1261
sS'PEAK TABLE'
p1262
((lp1263
F15.0
aF26.0
aF27.0
aF29.0
aF30.0
aF31.0
aF38.0
aF39.0
aF43.0
aF44.0
aF45.0
aF49.0
aF50.0
aF51.0
aF52.0
aF53.0
aF62.0
aF63.0
aF64.0
aF65.0
aF66.0
aF73.0
aF74.0
aF75.0
aF76.0
aF77.0
aF78.0
aF79.0
aF91.0
aF92.0
aF93.0
aF94.0
aF103.0
aF104.0
aF105.0
aF106.0
aF107.0
aF119.0
aF120.0
aF121.0
aF122.0
aF123.0
aF131.0
aF132.0
aF133.0
aF135.0
aF136.0
aF147.0
aF149.0
aF150.0
aF151.0
aF152.0
aF164.0
aF165.0
aF166.0
aF175.0
aF176.0
aF177.0
aF178.0
aF179.0
aF194.0
aF195.0
aF221.0
aF222.0
aF223.0
a(lp1264
F10.0
aF20.0
aF200.0
aF350.0
aF20.0
aF10.0
aF10.0
aF140.0
aF50.0
aF10.0
aF50.0
aF10.0
aF440.0
aF200.0
aF50.0
aF40.0
aF10.0
aF40.0
aF40.0
aF841.0
aF170.0
aF10.0
aF150.0
aF180.0
aF931.0
aF420.0
aF50.0
aF10.0
aF70.0
aF50.0
aF721.0
aF50.0
aF40.0
aF751.0
aF1001.0
aF180.0
aF20.0
aF10.0
aF10.0
aF691.0
aF390.0
aF30.0
aF20.0
aF190.0
aF60.0
aF70.0
aF10.0
aF20.0
aF9999.0
aF1351.0
aF140.0
aF10.0
aF40.0
aF10.0
aF10.0
aF10.0
aF991.0
aF2442.0
aF490.0
aF50.0
aF30.0
aF20.0
aF40.0
aF200.0
aF20.0
atp1265
sS'LASTX'
p1266
F223.0
sS'XFACTOR'
p1267
F1.0
sS'ORIGIN'
p1268
S'NIST Mass Spectrometry Data Center'
p1269
sS'JCAMP-DX'
p1270
F4.24
sS'MINX'
p1271
F15.0
sS'MINY'
p1272
F10.0
sS'MAXY'
p1273
F9999.0
sS'DATA TYPE'
p1274
S'MASS SPECTRUM'
p1275
sS'FIRSTX'
p1276
F15.0
sS'MAXX'
p1277
F223.0
sS'XUNITS'
p1278
S'M/Z'
p1279
sS'FIRSTY'
p1280
F10.0
sS'$NIST SOURCE'
p1281
S'MSDC'
p1282
sS'MW'
p1283
F222.0
sS'YUNITS'
p1284
S'RELATIVE INTENSITY'
p1285
sS'OWNER'
p1286
S'NIST Mass Spectrometry Data Center'
p1287
ssS'Benzyl butyl phthalate'
p1288
(dp1289
S'GROUP'
p1290
S'Hydrocarbons'
p1291
sS'TITLE'
p1292
g1288
sS'CAS REGISTRY NO'
p1293
F85.0
sS'NPOINTS'
p1294
F74.0
sg8
S'./library/85-68-7-Mass.jdx'
p1295
sS'YFACTOR'
p1296
F1.0
sS'$NIST MASS SPEC NO'
p1297
F70301.0
sS'MOLFORM'
p1298
S'C19 H20 O4'
p1299
sS'PEAK TABLE'
p1300
((lp1301
F26.0
aF27.0
aF29.0
aF30.0
aF38.0
aF39.0
aF41.0
aF42.0
aF43.0
aF50.0
aF51.0
aF52.0
aF53.0
aF55.0
aF56.0
aF57.0
aF62.0
aF63.0
aF64.0
aF65.0
aF66.0
aF74.0
aF75.0
aF76.0
aF77.0
aF78.0
aF79.0
aF80.0
aF89.0
aF90.0
aF91.0
aF92.0
aF93.0
aF94.0
aF104.0
aF105.0
aF106.0
aF107.0
aF108.0
aF118.0
aF120.0
aF121.0
aF122.0
aF123.0
aF124.0
aF132.0
aF133.0
aF134.0
aF135.0
aF136.0
aF149.0
aF150.0
aF151.0
aF152.0
aF153.0
aF164.0
aF165.0
aF166.0
aF167.0
aF177.0
aF178.0
aF179.0
aF181.0
aF193.0
aF194.0
aF205.0
aF206.0
aF207.0
aF208.0
aF211.0
aF238.0
aF239.0
aF312.0
aF313.0
a(lp1302
F30.0
aF320.0
aF580.0
aF10.0
aF40.0
aF610.0
aF1040.0
aF70.0
aF90.0
aF520.0
aF450.0
aF110.0
aF80.0
aF220.0
aF480.0
aF320.0
aF40.0
aF250.0
aF120.0
aF1940.0
aF110.0
aF130.0
aF180.0
aF1270.0
aF840.0
aF160.0
aF400.0
aF30.0
aF370.0
aF160.0
aF7220.0
aF700.0
aF420.0
aF40.0
aF1690.0
aF1140.0
aF190.0
aF400.0
aF90.0
aF30.0
aF100.0
aF410.0
aF830.0
aF1360.0
aF110.0
aF1260.0
aF260.0
aF30.0
aF610.0
aF160.0
aF9999.0
aF1170.0
aF130.0
aF50.0
aF20.0
aF30.0
aF160.0
aF40.0
aF20.0
aF60.0
aF330.0
aF40.0
aF20.0
aF30.0
aF50.0
aF370.0
aF2270.0
aF310.0
aF30.0
aF20.0
aF330.0
aF90.0
aF160.0
aF50.0
atp1303
sS'LASTX'
p1304
F313.0
sS'XFACTOR'
p1305
F1.0
sS'ORIGIN'
p1306
S'RADIAN CORP'
p1307
sS'JCAMP-DX'
p1308
F4.24
sS'MINX'
p1309
F26.0
sS'MINY'
p1310
F10.0
sS'MAXY'
p1311
F9999.0
sS'DATA TYPE'
p1312
S'MASS SPECTRUM'
p1313
sS'FIRSTX'
p1314
F26.0
sS'MAXX'
p1315
F313.0
sS'XUNITS'
p1316
S'M/Z'
p1317
sS'FIRSTY'
p1318
F30.0
sS'$NIST SOURCE'
p1319
S'MSDC'
p1320
sS'MW'
p1321
F312.0
sS'YUNITS'
p1322
S'RELATIVE INTENSITY'
p1323
sS'OWNER'
p1324
S'NIST Mass Spectrometry Data Center'
p1325
ssS'Salicylic acid'
p1326
(dp1327
S'GROUP'
p1328
S'Hydrocarbons'
p1329
sS'TITLE'
p1330
g1326
sS'DATA CLASS'
p1331
S'XYDATA'
p1332
sS'BP'
p1333
F267.0
sS'CAS REGISTRY NO'
p1334
F3789.0
sS'NPOINTS'
p1335
F60.0
sg8
S'./library/SalicylicAcid.jdx'
p1336
sS'YFACTOR'
p1337
F1.0
sS'MAXY'
p1338
F999.0
sS'$CITATION'
p1339
S'Schauer N, Steinhauser D, Strelkov S, Schomburg D, Allison G, Moritz T, Lundgren K, Roessner-Tunali U, Forbes MG, Willmitzer L, Fernie AR, Kopka J (2005) FEBS Letters 579, 1332-1337'
p1340
sS'MOLFORM'
p1341
S'C13H22O3Si2'
p1342
sS'PEAK TABLE'
p1343
((lp1344
F50.0
aF63.0
aF64.0
aF78.0
aF90.0
aF91.0
aF92.0
aF95.0
aF105.0
aF109.0
aF111.0
aF119.0
aF120.0
aF121.0
aF123.0
aF135.0
aF136.0
aF137.0
aF149.0
aF150.0
aF151.0
aF163.0
aF165.0
aF166.0
aF168.0
aF175.0
aF177.0
aF179.0
aF181.0
aF189.0
aF191.0
aF193.0
aF194.0
aF195.0
aF204.0
aF205.0
aF207.0
aF209.0
aF210.0
aF211.0
aF217.0
aF219.0
aF220.0
aF223.0
aF225.0
aF226.0
aF233.0
aF234.0
aF235.0
aF249.0
aF250.0
aF251.0
aF264.0
aF265.0
aF267.0
aF268.0
aF269.0
aF270.0
aF275.0
aF277.0
a(lp1345
F3.0
aF5.0
aF12.0
aF3.0
aF4.0
aF116.0
aF28.0
aF9.0
aF13.0
aF6.0
aF87.0
aF5.0
aF6.0
aF10.0
aF4.0
aF132.0
aF14.0
aF14.0
aF111.0
aF21.0
aF40.0
aF7.0
aF4.0
aF5.0
aF3.0
aF23.0
aF8.0
aF25.0
aF24.0
aF16.0
aF17.0
aF93.0
aF19.0
aF12.0
aF19.0
aF38.0
aF14.0
aF152.0
aF26.0
aF18.0
aF50.0
aF6.0
aF4.0
aF3.0
aF8.0
aF3.0
aF36.0
aF4.0
aF4.0
aF51.0
aF11.0
aF10.0
aF4.0
aF12.0
aF999.0
aF197.0
aF85.0
aF11.0
aF20.0
aF4.0
atp1346
sS'LASTX'
p1347
F277.0
sS'XFACTOR'
p1348
F1.0
sS'ORIGIN'
p1349
S'Kopka J, Max Planck Institute of Molecular Plant Physiology, Department of Molecular Plant Physiology (Prof. Willmitzer L), Am Muehlenberg 1, D-14476 Golm, Germany'
p1350
sS'$GMD MASS SPEC NO '
p1351
S"'http://gmd.mpimp-golm.mpg.de/Spectrums/9ab6740e-e902-4191-9b91-9442be6e5b8f.aspx'"
p1352
sS'$RETENTION INDEX'
p1353
F1507.85
sS'JCAMP-DX'
p1354
F5.01
sS'FIRSTX'
p1355
F50.0
sS'FIRSTY'
p1356
F3.0
sS'VERSION'
p1357
S' 18/Feb/2016 21:41 dbtest'
p1358
sS'DATA TYPE'
p1359
S'MASS SPECTRUM'
p1360
sS'$CHROMATOGRAPHY VARIANT'
p1361
S'VAR5 ALK: PRED'
p1362
sS'MINX'
p1363
F50.0
sS'MAXX'
p1364
F277.0
sS'XUNITS'
p1365
S'M/Z'
p1366
sS'MINY'
p1367
F3.0
sS'MW'
p1368
F282.483
sS'YUNITS'
p1369
S'RELATIVE ABUNDANCE'
p1370
sS'OWNER'
p1371
S'Golm Metabolome Database (GMD) http://gmd.mpimp-golm.mpg.de/'
p1372
ssS'Fluorine'
p1373
(dp1374
S'GROUP'
p1375
S'Fluorocarbons'
p1376
sS'TITLE'
p1377
g1373
sg8
S'./library/Fluorine.jdx'
p1378
sS'MW'
p1379
F19.0
sS'YUNITS'
p1380
S'RELATIVE INTENSITY'
p1381
sS'MOLFORM'
p1382
S'Ne'
p1383
sS'DATA TYPE'
p1384
S'MASS SPECTRUM'
p1385
sS'PEAK TABLE'
p1386
((lp1387
F19.0
a(lp1388
F1.0
atp1389
ssS'2,3-Butanediol, 2,3-diphenyl-'
p1390
(dp1391
S'GROUP'
p1392
S'Hydrocarbons'
p1393
sS'TITLE'
p1394
g1390
sS'CAS REGISTRY NO'
p1395
F1636.0
sS'NPOINTS'
p1396
F62.0
sg8
S'./library/1636-34-6-Mass.jdx'
p1397
sS'YFACTOR'
p1398
F1.0
sS'$NIST MASS SPEC NO'
p1399
F238234.0
sS'MOLFORM'
p1400
S'C16 H18 O2'
p1401
sS'PEAK TABLE'
p1402
((lp1403
F15.0
aF17.0
aF18.0
aF27.0
aF28.0
aF39.0
aF41.0
aF43.0
aF44.0
aF45.0
aF50.0
aF51.0
aF52.0
aF53.0
aF63.0
aF65.0
aF74.0
aF75.0
aF76.0
aF77.0
aF78.0
aF79.0
aF80.0
aF89.0
aF91.0
aF92.0
aF102.0
aF103.0
aF104.0
aF105.0
aF106.0
aF107.0
aF108.0
aF115.0
aF119.0
aF120.0
aF121.0
aF122.0
aF123.0
aF124.0
aF128.0
aF129.0
aF147.0
aF152.0
aF165.0
aF166.0
aF167.0
aF178.0
aF179.0
aF181.0
aF182.0
aF191.0
aF193.0
aF194.0
aF205.0
aF206.0
aF207.0
aF208.0
aF209.0
aF224.0
aF225.0
aF226.0
a(lp1404
F40.0
aF30.0
aF119.0
aF20.0
aF30.0
aF40.0
aF10.0
aF6079.0
aF139.0
aF20.0
aF40.0
aF189.0
aF40.0
aF10.0
aF20.0
aF30.0
aF10.0
aF10.0
aF30.0
aF659.0
aF429.0
aF309.0
aF20.0
aF20.0
aF90.0
aF10.0
aF20.0
aF139.0
aF99.0
aF839.0
aF189.0
aF1129.0
aF90.0
aF30.0
aF20.0
aF279.0
aF9999.0
aF8689.0
aF739.0
aF50.0
aF10.0
aF10.0
aF40.0
aF10.0
aF50.0
aF50.0
aF10.0
aF30.0
aF20.0
aF309.0
aF50.0
aF10.0
aF40.0
aF10.0
aF10.0
aF30.0
aF10.0
aF70.0
aF30.0
aF20.0
aF80.0
aF10.0
atp1405
sS'LASTX'
p1406
F226.0
sS'XFACTOR'
p1407
F1.0
sS'ORIGIN'
p1408
S'Japan AIST/NIMC Database- Spectrum MS-IW- 277'
p1409
sS'JCAMP-DX'
p1410
F4.24
sS'MINX'
p1411
F15.0
sS'MINY'
p1412
F10.0
sS'MAXY'
p1413
F9999.0
sS'DATA TYPE'
p1414
S'MASS SPECTRUM'
p1415
sS'FIRSTX'
p1416
F15.0
sS'MAXX'
p1417
F226.0
sS'XUNITS'
p1418
S'M/Z'
p1419
sS'FIRSTY'
p1420
F40.0
sS'$NIST SOURCE'
p1421
S'MSDC'
p1422
sS'MW'
p1423
F242.0
sS'YUNITS'
p1424
S'RELATIVE INTENSITY'
p1425
sS'OWNER'
p1426
S'NIST Mass Spectrometry Data Center'
p1427
ssS'Methane'
p1428
(dp1429
S'GROUP'
p1430
S'Hydrocarbons'
p1431
sS'TITLE'
p1432
g1428
sS'CAS REGISTRY NO'
p1433
F74.0
sS'NPOINTS'
p1434
F6.0
sg8
S'./library/74-82-8-Mass.jdx'
p1435
sS'YFACTOR'
p1436
F1.0
sS'$NIST MASS SPEC NO'
p1437
F61313.0
sS'MOLFORM'
p1438
S'C H4'
p1439
sS'PEAK TABLE'
p1440
((lp1441
F12.0
aF13.0
aF14.0
aF15.0
aF16.0
aF17.0
a(lp1442
F380.0
aF1069.0
aF2042.0
aF8879.0
aF9999.0
aF164.0
atp1443
sS'LASTX'
p1444
F17.0
sS'XFACTOR'
p1445
F1.0
sS'ORIGIN'
p1446
S'D.HENNEBERG, MAX-PLANCK INSTITUTE, MULHEIM, WEST GERMANY'
p1447
sS'JCAMP-DX'
p1448
F4.24
sS'MINX'
p1449
F12.0
sS'MINY'
p1450
F164.0
sS'MAXY'
p1451
F9999.0
sS'DATA TYPE'
p1452
S'MASS SPECTRUM'
p1453
sS'FIRSTX'
p1454
F12.0
sS'MAXX'
p1455
F17.0
sS'XUNITS'
p1456
S'M/Z'
p1457
sS'FIRSTY'
p1458
F380.0
sS'$NIST SOURCE'
p1459
S'MSDC'
p1460
sS'MW'
p1461
F16.0
sS'YUNITS'
p1462
S'RELATIVE INTENSITY'
p1463
sS'OWNER'
p1464
S'NIST Mass Spectrometry Data Center'
p1465
ssS'Benzene'
p1466
(dp1467
S'GROUP'
p1468
S'Hydrocarbons'
p1469
sS'TITLE'
p1470
g1466
sS'CAS REGISTRY NO'
p1471
F71.0
sS'NPOINTS'
p1472
F26.0
sg8
S'./library/71-43-2-Mass.jdx'
p1473
sS'YFACTOR'
p1474
F1.0
sS'$NIST MASS SPEC NO'
p1475
F114388.0
sS'MOLFORM'
p1476
S'C6 H6'
p1477
sS'PEAK TABLE'
p1478
((lp1479
F15.0
aF25.0
aF26.0
aF27.0
aF28.0
aF36.0
aF37.0
aF38.0
aF39.0
aF40.0
aF48.0
aF49.0
aF50.0
aF51.0
aF52.0
aF53.0
aF61.0
aF62.0
aF63.0
aF73.0
aF74.0
aF75.0
aF76.0
aF77.0
aF78.0
aF79.0
a(lp1480
F122.0
aF70.0
aF345.0
aF262.0
aF210.0
aF66.0
aF429.0
aF561.0
aF1119.0
aF70.0
aF47.0
aF392.0
aF2082.0
aF2211.0
aF1884.0
aF77.0
aF102.0
aF110.0
aF497.0
aF246.0
aF622.0
aF225.0
aF589.0
aF2837.0
aF9999.0
aF653.0
atp1481
sS'LASTX'
p1482
F79.0
sS'XFACTOR'
p1483
F1.0
sS'ORIGIN'
p1484
S'NIST Mass Spectrometry Data Center, 1990.'
p1485
sS'JCAMP-DX'
p1486
F4.24
sS'MINX'
p1487
F15.0
sS'MINY'
p1488
F47.0
sS'MAXY'
p1489
F9999.0
sS'DATA TYPE'
p1490
S'MASS SPECTRUM'
p1491
sS'FIRSTX'
p1492
F15.0
sS'MAXX'
p1493
F79.0
sS'XUNITS'
p1494
S'M/Z'
p1495
sS'FIRSTY'
p1496
F122.0
sS'$NIST SOURCE'
p1497
S'MSDC'
p1498
sS'MW'
p1499
F78.0
sS'YUNITS'
p1500
S'RELATIVE INTENSITY'
p1501
sS'OWNER'
p1502
S'NIST Mass Spectrometry Data Center'
p1503
ssS'Acetic acid, methyl ester'
p1504
(dp1505
S'GROUP'
p1506
S'Hydrocarbons'
p1507
sS'TITLE'
p1508
g1504
sS'CAS REGISTRY NO'
p1509
F79.0
sS'NPOINTS'
p1510
F25.0
sg8
S'./library/79-20-9-Mass.jdx'
p1511
sS'YFACTOR'
p1512
F1.0
sS'$NIST MASS SPEC NO'
p1513
F291292.0
sS'MOLFORM'
p1514
S'C3 H6 O2'
p1515
sS'PEAK TABLE'
p1516
((lp1517
F12.0
aF13.0
aF14.0
aF15.0
aF16.0
aF25.0
aF26.0
aF27.0
aF29.0
aF30.0
aF31.0
aF33.0
aF40.0
aF41.0
aF42.0
aF43.0
aF44.0
aF45.0
aF56.0
aF59.0
aF60.0
aF73.0
aF74.0
aF75.0
aF76.0
a(lp1518
F10.0
aF30.0
aF120.0
aF650.0
aF10.0
aF10.0
aF40.0
aF40.0
aF680.0
aF90.0
aF190.0
aF10.0
aF20.0
aF150.0
aF1250.0
aF9999.0
aF360.0
aF180.0
aF10.0
aF1120.0
aF30.0
aF20.0
aF2530.0
aF100.0
aF10.0
atp1519
sS'LASTX'
p1520
F76.0
sS'XFACTOR'
p1521
F1.0
sS'ORIGIN'
p1522
S'NIST Mass Spectrometry Data Center, 1998.'
p1523
sS'JCAMP-DX'
p1524
F4.24
sS'MINX'
p1525
F12.0
sS'MINY'
p1526
F10.0
sS'MAXY'
p1527
F9999.0
sS'DATA TYPE'
p1528
S'MASS SPECTRUM'
p1529
sS'FIRSTX'
p1530
F12.0
sS'MAXX'
p1531
F76.0
sS'XUNITS'
p1532
S'M/Z'
p1533
sS'FIRSTY'
p1534
F10.0
sS'$NIST SOURCE'
p1535
S'MSDC'
p1536
sS'MW'
p1537
F74.0
sS'YUNITS'
p1538
S'RELATIVE INTENSITY'
p1539
sS'OWNER'
p1540
S'NIST Mass Spectrometry Data Center'
p1541
ssS'Pentafluoroethyl chloride'
p1542
(dp1543
S'GROUP'
p1544
S'Hydrocarbons'
p1545
sS'TITLE'
p1546
g1542
sS'CAS REGISTRY NO'
p1547
F76.0
sS'NPOINTS'
p1548
F24.0
sg8
S'./library/76-15-3-Mass.jdx'
p1549
sS'YFACTOR'
p1550
F1.0
sS'$NIST MASS SPEC NO'
p1551
F5209.0
sS'MOLFORM'
p1552
S'C2 Cl F5'
p1553
sS'PEAK TABLE'
p1554
((lp1555
F30.0
aF31.0
aF35.0
aF36.0
aF37.0
aF38.0
aF40.0
aF43.0
aF47.0
aF49.0
aF50.0
aF58.0
aF60.0
aF62.0
aF68.0
aF69.0
aF70.0
aF85.0
aF87.0
aF88.0
aF100.0
aF119.0
aF135.0
aF137.0
a(lp1556
F130.0
aF3373.0
aF230.0
aF80.0
aF70.0
aF30.0
aF50.0
aF50.0
aF160.0
aF50.0
aF931.0
aF40.0
aF30.0
aF20.0
aF90.0
aF5205.0
aF50.0
aF9999.0
aF3263.0
aF40.0
aF300.0
aF5645.0
aF2372.0
aF771.0
atp1557
sS'LASTX'
p1558
F137.0
sS'XFACTOR'
p1559
F1.0
sS'JCAMP-DX'
p1560
F4.24
sS'MINX'
p1561
F30.0
sS'MINY'
p1562
F20.0
sS'MAXY'
p1563
F9999.0
sS'DATA TYPE'
p1564
S'MASS SPECTRUM'
p1565
sS'FIRSTX'
p1566
F30.0
sS'MAXX'
p1567
F137.0
sS'XUNITS'
p1568
S'M/Z'
p1569
sS'FIRSTY'
p1570
F130.0
sS'$NIST SOURCE'
p1571
S'MSDC'
p1572
sS'MW'
p1573
F154.0
sS'YUNITS'
p1574
S'RELATIVE INTENSITY'
p1575
sS'OWNER'
p1576
S'NIST Mass Spectrometry Data Center'
p1577
ssS'Carbon dioxide'
p1578
(dp1579
S'GROUP'
p1580
S'Air'
p1581
sS'TITLE'
p1582
g1578
sS'CAS REGISTRY NO'
p1583
F124.0
sS'NPOINTS'
p1584
F8.0
sg8
S'./library/124-38-9-Mass.jdx'
p1585
sS'YFACTOR'
p1586
F1.0
sS'$NIST MASS SPEC NO'
p1587
F69.0
sS'MOLFORM'
p1588
S'C O2'
p1589
sS'PEAK TABLE'
p1590
((lp1591
F12.0
aF16.0
aF22.0
aF28.0
aF29.0
aF44.0
aF45.0
aF46.0
a(lp1592
F871.0
aF961.0
aF190.0
aF981.0
aF10.0
aF9999.0
aF120.0
aF40.0
atp1593
sS'LASTX'
p1594
F46.0
sS'XFACTOR'
p1595
F1.0
sS'JCAMP-DX'
p1596
F4.24
sS'MINX'
p1597
F12.0
sS'MINY'
p1598
F10.0
sS'MAXY'
p1599
F9999.0
sS'DATA TYPE'
p1600
S'MASS SPECTRUM'
p1601
sS'FIRSTX'
p1602
F12.0
sS'MAXX'
p1603
F46.0
sS'XUNITS'
p1604
S'M/Z'
p1605
sS'FIRSTY'
p1606
F871.0
sS'$NIST SOURCE'
p1607
S'MSDC'
p1608
sS'MW'
p1609
F44.0
sS'YUNITS'
p1610
S'RELATIVE INTENSITY'
p1611
sS'OWNER'
p1612
S'NIST Mass Spectrometry Data Center'
p1613
ssS'Fluoroform'
p1614
(dp1615
S'TITLE'
p1616
g1614
sS'CAS REGISTRY NO'
p1617
F75.0
sS'NPOINTS'
p1618
F12.0
sg8
S'./library/75-46-7-Mass.jdx'
p1619
sS'YFACTOR'
p1620
F1.0
sS'$NIST MASS SPEC NO'
p1621
F268.0
sS'MOLFORM'
p1622
S'C H F3'
p1623
sS'PEAK TABLE'
p1624
((lp1625
F12.0
aF13.0
aF19.0
aF20.0
aF31.0
aF32.0
aF39.0
aF50.0
aF51.0
aF52.0
aF69.0
aF70.0
a(lp1626
F40.0
aF20.0
aF70.0
aF10.0
aF2402.0
aF230.0
aF10.0
aF1211.0
aF6296.0
aF70.0
aF9999.0
aF110.0
atp1627
sS'LASTX'
p1628
F70.0
sS'XFACTOR'
p1629
F1.0
sS'JCAMP-DX'
p1630
F4.24
sS'MINX'
p1631
F12.0
sS'MINY'
p1632
F10.0
sS'MAXY'
p1633
F9999.0
sS'DATA TYPE'
p1634
S'MASS SPECTRUM'
p1635
sS'FIRSTX'
p1636
F12.0
sS'MAXX'
p1637
F70.0
sS'XUNITS'
p1638
S'M/Z'
p1639
sS'FIRSTY'
p1640
F40.0
sS'$NIST SOURCE'
p1641
S'MSDC'
p1642
sS'MW'
p1643
F70.0
sS'YUNITS'
p1644
S'RELATIVE INTENSITY'
p1645
sS'OWNER'
p1646
S'NIST Mass Spectrometry Data Center'
p1647
ssS'Neon'
p1648
(dp1649
S'GROUP'
p1650
S'Noble Gases'
p1651
sS'TITLE'
p1652
g1648
sg8
S'./library/Neon.jdx'
p1653
sS'MW'
p1654
F1.0
sS'YUNITS'
p1655
S'RELATIVE INTENSITY'
p1656
sS'MOLFORM'
p1657
S'Ne'
p1658
sS'DATA TYPE'
p1659
S'MASS SPECTRUM'
p1660
sS'PEAK TABLE'
p1661
((lp1662
F10.0
a(lp1663
F1.0
atp1664
ssS'Isopropyl Alcohol'
p1665
(dp1666
S'GROUP'
p1667
S'Solvents'
p1668
sS'TITLE'
p1669
g1665
sS'CAS REGISTRY NO'
p1670
F67.0
sS'NPOINTS'
p1671
F19.0
sg8
S'./library/67-63-0-Mass.jdx'
p1672
sS'YFACTOR'
p1673
F1.0
sS'$NIST MASS SPEC NO'
p1674
F289584.0
sS'MOLFORM'
p1675
S'C3 H8 O'
p1676
sS'PEAK TABLE'
p1677
((lp1678
F14.0
aF15.0
aF19.0
aF26.0
aF27.0
aF28.0
aF29.0
aF31.0
aF37.0
aF38.0
aF39.0
aF41.0
aF42.0
aF43.0
aF44.0
aF45.0
aF46.0
aF59.0
aF60.0
a(lp1679
F270.0
aF951.0
aF991.0
aF250.0
aF1682.0
aF90.0
aF1251.0
aF681.0
aF120.0
aF200.0
aF661.0
aF821.0
aF440.0
aF1912.0
aF420.0
aF9999.0
aF180.0
aF380.0
aF50.0
atp1680
sS'LASTX'
p1681
F60.0
sS'XFACTOR'
p1682
F1.0
sS'ORIGIN'
p1683
S'VERIFINN'
p1684
sS'JCAMP-DX'
p1685
F4.24
sS'MINX'
p1686
F14.0
sS'MINY'
p1687
F50.0
sS'MAXY'
p1688
F9999.0
sS'DATA TYPE'
p1689
S'MASS SPECTRUM'
p1690
sS'FIRSTX'
p1691
F14.0
sS'MAXX'
p1692
F60.0
sS'XUNITS'
p1693
S'M/Z'
p1694
sS'FIRSTY'
p1695
F270.0
sS'$NIST SOURCE'
p1696
S'MSDC'
p1697
sS'MW'
p1698
F60.0
sS'YUNITS'
p1699
S'RELATIVE INTENSITY'
p1700
sS'OWNER'
p1701
S'NIST Mass Spectrometry Data Center'
p1702
ssS'Ethane, hexafluoro-'
p1703
(dp1704
S'GROUP'
p1705
S'Fluorocarbons'
p1706
sS'TITLE'
p1707
g1703
sS'CAS REGISTRY NO'
p1708
F76.0
sS'NPOINTS'
p1709
F18.0
sg8
S'./library/76-16-4-Mass.jdx'
p1710
sS'YFACTOR'
p1711
F1.0
sS'$NIST MASS SPEC NO'
p1712
F3610.0
sS'MOLFORM'
p1713
S'C2 F6'
p1714
sS'PEAK TABLE'
p1715
((lp1716
F12.0
aF13.0
aF19.0
aF24.0
aF31.0
aF32.0
aF43.0
aF50.0
aF51.0
aF62.0
aF69.0
aF70.0
aF81.0
aF100.0
aF101.0
aF119.0
aF120.0
aF138.0
a(lp1717
F150.0
aF10.0
aF120.0
aF30.0
aF1832.0
aF20.0
aF40.0
aF1011.0
aF10.0
aF10.0
aF9999.0
aF110.0
aF10.0
aF60.0
aF10.0
aF4134.0
aF90.0
aF20.0
atp1718
sS'LASTX'
p1719
F138.0
sS'XFACTOR'
p1720
F1.0
sS'JCAMP-DX'
p1721
F4.24
sS'MINX'
p1722
F12.0
sS'MINY'
p1723
F10.0
sS'MAXY'
p1724
F9999.0
sS'DATA TYPE'
p1725
S'MASS SPECTRUM'
p1726
sS'FIRSTX'
p1727
F12.0
sS'MAXX'
p1728
F138.0
sS'XUNITS'
p1729
S'M/Z'
p1730
sS'FIRSTY'
p1731
F150.0
sS'$NIST SOURCE'
p1732
S'MSDC'
p1733
sS'MW'
p1734
F138.0
sS'YUNITS'
p1735
S'RELATIVE INTENSITY'
p1736
sS'OWNER'
p1737
S'NIST Mass Spectrometry Data Center'
p1738
ssS'Propanoic acid'
p1739
(dp1740
S'GROUP'
p1741
S'Hydrocarbons'
p1742
sS'TITLE'
p1743
g1739
sS'CAS REGISTRY NO'
p1744
F79.0
sS'NPOINTS'
p1745
F40.0
sg8
S'./library/79-09-4-Mass.jdx'
p1746
sS'YFACTOR'
p1747
F1.0
sS'$NIST MASS SPEC NO'
p1748
F290898.0
sS'MOLFORM'
p1749
S'C3 H6 O2'
p1750
sS'PEAK TABLE'
p1751
((lp1752
F13.0
aF14.0
aF15.0
aF16.0
aF17.0
aF18.0
aF19.0
aF24.0
aF25.0
aF26.0
aF27.0
aF28.0
aF29.0
aF30.0
aF31.0
aF36.0
aF37.0
aF38.0
aF39.0
aF40.0
aF41.0
aF42.0
aF43.0
aF44.0
aF45.0
aF46.0
aF47.0
aF52.0
aF53.0
aF54.0
aF55.0
aF56.0
aF57.0
aF58.0
aF59.0
aF72.0
aF73.0
aF74.0
aF75.0
aF76.0
a(lp1753
F10.0
aF120.0
aF170.0
aF10.0
aF40.0
aF30.0
aF20.0
aF10.0
aF300.0
aF2270.0
aF6379.0
aF9299.0
aF8339.0
aF1450.0
aF630.0
aF20.0
aF20.0
aF20.0
aF50.0
aF30.0
aF170.0
aF780.0
aF420.0
aF280.0
aF9009.0
aF780.0
aF490.0
aF30.0
aF390.0
aF20.0
aF2660.0
aF2180.0
aF4660.0
aF160.0
aF100.0
aF10.0
aF6479.0
aF9999.0
aF370.0
aF30.0
atp1754
sS'LASTX'
p1755
F76.0
sS'XFACTOR'
p1756
F1.0
sS'ORIGIN'
p1757
S'NIST Mass Spectrometry Data Center, 1998.'
p1758
sS'JCAMP-DX'
p1759
F4.24
sS'MINX'
p1760
F13.0
sS'MINY'
p1761
F10.0
sS'MAXY'
p1762
F9999.0
sS'DATA TYPE'
p1763
S'MASS SPECTRUM'
p1764
sS'FIRSTX'
p1765
F13.0
sS'MAXX'
p1766
F76.0
sS'XUNITS'
p1767
S'M/Z'
p1768
sS'FIRSTY'
p1769
F10.0
sS'$NIST SOURCE'
p1770
S'MSDC'
p1771
sS'MW'
p1772
F74.0
sS'YUNITS'
p1773
S'RELATIVE INTENSITY'
p1774
sS'OWNER'
p1775
S'NIST Mass Spectrometry Data Center'
p1776
ssS'p-Xylene'
p1777
(dp1778
S'TITLE'
p1779
g1777
sS'CAS REGISTRY NO'
p1780
F106.0
sS'NPOINTS'
p1781
F56.0
sg8
S'./library/106-42-3-Mass.jdx'
p1782
sS'YFACTOR'
p1783
F1.0
sS'$NIST MASS SPEC NO'
p1784
F228010.0
sS'MOLFORM'
p1785
S'C8 H10'
p1786
sS'PEAK TABLE'
p1787
((lp1788
F15.0
aF18.0
aF26.0
aF27.0
aF28.0
aF29.0
aF32.0
aF37.0
aF38.0
aF39.0
aF40.0
aF41.0
aF43.0
aF49.0
aF50.0
aF51.0
aF52.0
aF53.0
aF54.0
aF55.0
aF57.0
aF61.0
aF62.0
aF63.0
aF64.0
aF65.0
aF66.0
aF67.0
aF69.0
aF73.0
aF74.0
aF75.0
aF76.0
aF77.0
aF78.0
aF79.0
aF80.0
aF83.0
aF85.0
aF86.0
aF87.0
aF89.0
aF90.0
aF91.0
aF92.0
aF93.0
aF97.0
aF98.0
aF101.0
aF102.0
aF103.0
aF104.0
aF105.0
aF106.0
aF107.0
aF108.0
a(lp1789
F10.0
aF20.0
aF30.0
aF349.0
aF80.0
aF10.0
aF20.0
aF40.0
aF119.0
aF799.0
aF70.0
aF129.0
aF10.0
aF40.0
aF399.0
aF859.0
aF339.0
aF279.0
aF10.0
aF20.0
aF20.0
aF70.0
aF159.0
aF469.0
aF90.0
aF559.0
aF70.0
aF10.0
aF10.0
aF20.0
aF129.0
aF80.0
aF80.0
aF1189.0
aF579.0
aF709.0
aF40.0
aF10.0
aF10.0
aF40.0
aF40.0
aF189.0
aF70.0
aF9999.0
aF749.0
aF20.0
aF10.0
aF10.0
aF20.0
aF109.0
aF589.0
aF289.0
aF2889.0
aF6589.0
aF579.0
aF10.0
atp1790
sS'LASTX'
p1791
F108.0
sS'XFACTOR'
p1792
F1.0
sS'ORIGIN'
p1793
S'Japan AIST/NIMC Database- Spectrum MS-NW- 48'
p1794
sS'JCAMP-DX'
p1795
F4.24
sS'MINX'
p1796
F15.0
sS'MINY'
p1797
F10.0
sS'MAXY'
p1798
F9999.0
sS'DATA TYPE'
p1799
S'MASS SPECTRUM'
p1800
sS'FIRSTX'
p1801
F15.0
sS'MAXX'
p1802
F108.0
sS'XUNITS'
p1803
S'M/Z'
p1804
sS'FIRSTY'
p1805
F10.0
sS'$NIST SOURCE'
p1806
S'MSDC'
p1807
sS'MW'
p1808
F106.0
sS'YUNITS'
p1809
S'RELATIVE INTENSITY'
p1810
sS'OWNER'
p1811
S'NIST Mass Spectrometry Data Center'
p1812
ssS'Nitrogen'
p1813
(dp1814
S'GROUP'
p1815
S'Air'
p1816
sS'TITLE'
p1817
g1813
sS'CAS REGISTRY NO'
p1818
F7727.0
sS'NPOINTS'
p1819
F3.0
sg8
S'./library/7727-37-9-Mass.jdx'
p1820
sS'YFACTOR'
p1821
F1.0
sS'$NIST MASS SPEC NO'
p1822
F61309.0
sS'MOLFORM'
p1823
S'N2'
p1824
sS'PEAK TABLE'
p1825
((lp1826
F14.0
aF28.0
aF29.0
a(lp1827
F1379.0
aF9999.0
aF74.0
atp1828
sS'LASTX'
p1829
F29.0
sS'XFACTOR'
p1830
F1.0
sS'ORIGIN'
p1831
S'D.HENNEBERG, MAX-PLANCK INSTITUTE, MULHEIM, WEST GERMANY'
p1832
sS'JCAMP-DX'
p1833
F4.24
sS'MINX'
p1834
F14.0
sS'MINY'
p1835
F74.0
sS'MAXY'
p1836
F9999.0
sS'DATA TYPE'
p1837
S'MASS SPECTRUM'
p1838
sS'FIRSTX'
p1839
F14.0
sS'MAXX'
p1840
F29.0
sS'XUNITS'
p1841
S'M/Z'
p1842
sS'FIRSTY'
p1843
F1379.0
sS'$NIST SOURCE'
p1844
S'MSDC'
p1845
sS'MW'
p1846
F28.0
sS'YUNITS'
p1847
S'RELATIVE INTENSITY'
p1848
sS'OWNER'
p1849
S'NIST Mass Spectrometry Data Center'
p1850
ssS'Methyl Alcohol'
p1851
(dp1852
S'GROUP'
p1853
S'Hydrocarbons'
p1854
sS'TITLE'
p1855
g1851
sS'CAS REGISTRY NO'
p1856
F67.0
sS'NPOINTS'
p1857
F16.0
sg8
S'./library/67-56-1-Mass.jdx'
p1858
sS'YFACTOR'
p1859
F1.0
sS'$NIST MASS SPEC NO'
p1860
F229809.0
sS'MOLFORM'
p1861
S'C H4 O'
p1862
sS'PEAK TABLE'
p1863
((lp1864
F2.0
aF12.0
aF13.0
aF14.0
aF15.0
aF16.0
aF17.0
aF18.0
aF19.0
aF28.0
aF29.0
aF30.0
aF31.0
aF32.0
aF33.0
aF34.0
a(lp1865
F30.0
aF20.0
aF60.0
aF169.0
aF1239.0
aF10.0
aF30.0
aF70.0
aF10.0
aF459.0
aF4459.0
aF649.0
aF9999.0
aF7439.0
aF119.0
aF10.0
atp1866
sS'LASTX'
p1867
F34.0
sS'XFACTOR'
p1868
F1.0
sS'ORIGIN'
p1869
S'Japan AIST/NIMC Database- Spectrum MS-NW- 72'
p1870
sS'JCAMP-DX'
p1871
F4.24
sS'MINX'
p1872
F2.0
sS'MINY'
p1873
F10.0
sS'MAXY'
p1874
F9999.0
sS'DATA TYPE'
p1875
S'MASS SPECTRUM'
p1876
sS'FIRSTX'
p1877
F2.0
sS'MAXX'
p1878
F34.0
sS'XUNITS'
p1879
S'M/Z'
p1880
sS'FIRSTY'
p1881
F30.0
sS'$NIST SOURCE'
p1882
S'MSDC'
p1883
sS'MW'
p1884
F32.0
sS'YUNITS'
p1885
S'RELATIVE INTENSITY'
p1886
sS'OWNER'
p1887
S'NIST Mass Spectrometry Data Center'
p1888
ssS'Diphenyl ether'
p1889
(dp1890
S'TITLE'
p1891
g1889
sS'CAS REGISTRY NO'
p1892
F101.0
sS'NPOINTS'
p1893
F102.0
sg8
S'./library/101-84-8-Mass.jdx'
p1894
sS'YFACTOR'
p1895
F1.0
sS'$NIST MASS SPEC NO'
p1896
F6610.0
sS'MOLFORM'
p1897
S'C12 H10 O'
p1898
sS'PEAK TABLE'
p1899
((lp1900
F14.0
aF15.0
aF16.0
aF17.0
aF18.0
aF25.0
aF26.0
aF27.0
aF28.0
aF29.0
aF31.0
aF32.0
aF33.0
aF36.0
aF37.0
aF38.0
aF39.0
aF40.0
aF41.0
aF42.0
aF43.0
aF44.0
aF49.0
aF50.0
aF51.0
aF52.0
aF53.0
aF54.0
aF55.0
aF56.0
aF57.0
aF58.0
aF61.0
aF62.0
aF63.0
aF64.0
aF65.0
aF66.0
aF67.0
aF68.0
aF69.0
aF70.0
aF71.0
aF72.0
aF73.0
aF74.0
aF75.0
aF76.0
aF77.0
aF78.0
aF79.0
aF83.0
aF84.0
aF85.0
aF87.0
aF88.0
aF89.0
aF90.0
aF91.0
aF92.0
aF93.0
aF94.0
aF95.0
aF98.0
aF99.0
aF101.0
aF102.0
aF103.0
aF104.0
aF105.0
aF106.0
aF110.0
aF111.0
aF113.0
aF114.0
aF115.0
aF116.0
aF117.0
aF119.0
aF126.0
aF127.0
aF128.0
aF129.0
aF130.0
aF131.0
aF138.0
aF139.0
aF140.0
aF141.0
aF142.0
aF143.0
aF144.0
aF151.0
aF152.0
aF153.0
aF154.0
aF155.0
aF168.0
aF169.0
aF170.0
aF171.0
aF172.0
a(lp1901
F20.0
aF50.0
aF10.0
aF10.0
aF30.0
aF30.0
aF220.0
aF811.0
aF120.0
aF60.0
aF20.0
aF10.0
aF20.0
aF20.0
aF290.0
aF931.0
aF3163.0
aF250.0
aF80.0
aF30.0
aF40.0
aF30.0
aF110.0
aF1541.0
aF5215.0
aF300.0
aF110.0
aF20.0
aF190.0
aF30.0
aF50.0
aF130.0
aF100.0
aF290.0
aF821.0
aF320.0
aF1121.0
aF290.0
aF30.0
aF140.0
aF120.0
aF440.0
aF520.0
aF70.0
aF70.0
aF370.0
aF280.0
aF270.0
aF4564.0
aF340.0
aF30.0
aF20.0
aF120.0
aF330.0
aF30.0
aF30.0
aF120.0
aF30.0
aF120.0
aF60.0
aF60.0
aF500.0
aF40.0
aF10.0
aF10.0
aF10.0
aF120.0
aF30.0
aF10.0
aF20.0
aF10.0
aF10.0
aF10.0
aF40.0
aF80.0
aF1241.0
aF230.0
aF30.0
aF80.0
aF20.0
aF30.0
aF50.0
aF40.0
aF10.0
aF20.0
aF20.0
aF260.0
aF390.0
aF3984.0
aF1872.0
aF200.0
aF50.0
aF10.0
aF20.0
aF30.0
aF10.0
aF40.0
aF340.0
aF1491.0
aF9999.0
aF1311.0
aF100.0
atp1902
sS'LASTX'
p1903
F172.0
sS'XFACTOR'
p1904
F1.0
sS'JCAMP-DX'
p1905
F4.24
sS'MINX'
p1906
F14.0
sS'MINY'
p1907
F10.0
sS'MAXY'
p1908
F9999.0
sS'DATA TYPE'
p1909
S'MASS SPECTRUM'
p1910
sS'FIRSTX'
p1911
F14.0
sS'MAXX'
p1912
F172.0
sS'XUNITS'
p1913
S'M/Z'
p1914
sS'FIRSTY'
p1915
F20.0
sS'$NIST SOURCE'
p1916
S'MSDC'
p1917
sS'MW'
p1918
F170.0
sS'YUNITS'
p1919
S'RELATIVE INTENSITY'
p1920
sS'OWNER'
p1921
S'NIST Mass Spectrometry Data Center'
p1922
ssS'Benzocaine'
p1923
(dp1924
S'GROUP'
p1925
S'Hydrocarbons'
p1926
sS'TITLE'
p1927
g1923
sS'CAS REGISTRY NO'
p1928
F94.0
sS'NPOINTS'
p1929
F66.0
sg8
S'./library/94-09-7-Mass.jdx'
p1930
sS'YFACTOR'
p1931
F1.0
sS'$NIST MASS SPEC NO'
p1932
F408497.0
sS'MOLFORM'
p1933
S'C9 H11 N O2'
p1934
sS'PEAK TABLE'
p1935
((lp1936
F15.0
aF26.0
aF27.0
aF28.0
aF29.0
aF30.0
aF31.0
aF37.0
aF38.0
aF39.0
aF40.0
aF41.0
aF42.0
aF43.0
aF44.0
aF46.0
aF50.0
aF51.0
aF52.0
aF53.0
aF54.0
aF55.0
aF60.0
aF61.0
aF62.0
aF63.0
aF64.0
aF65.0
aF66.0
aF67.0
aF68.0
aF73.0
aF74.0
aF75.0
aF76.0
aF77.0
aF78.0
aF79.0
aF80.0
aF81.0
aF87.0
aF88.0
aF89.0
aF90.0
aF91.0
aF92.0
aF93.0
aF94.0
aF106.0
aF108.0
aF109.0
aF118.0
aF120.0
aF121.0
aF122.0
aF136.0
aF137.0
aF138.0
aF139.0
aF146.0
aF150.0
aF151.0
aF164.0
aF165.0
aF166.0
aF167.0
a(lp1937
F20.0
aF40.0
aF170.0
aF100.0
aF190.0
aF20.0
aF10.0
aF30.0
aF90.0
aF400.0
aF50.0
aF140.0
aF50.0
aF40.0
aF10.0
aF50.0
aF60.0
aF60.0
aF150.0
aF60.0
aF50.0
aF10.0
aF80.0
aF30.0
aF110.0
aF330.0
aF300.0
aF1812.0
aF250.0
aF20.0
aF10.0
aF10.0
aF40.0
aF40.0
aF20.0
aF20.0
aF10.0
aF10.0
aF50.0
aF50.0
aF10.0
aF10.0
aF20.0
aF90.0
aF300.0
aF2232.0
aF440.0
aF40.0
aF10.0
aF170.0
aF30.0
aF30.0
aF9999.0
aF1021.0
aF70.0
aF20.0
aF1511.0
aF120.0
aF10.0
aF10.0
aF180.0
aF20.0
aF100.0
aF2953.0
aF320.0
aF20.0
atp1938
sS'LASTX'
p1939
F167.0
sS'XFACTOR'
p1940
F1.0
sS'ORIGIN'
p1941
S'Tox21 Consortium/NIST Mass Spectrometry Data Center, 2012'
p1942
sS'JCAMP-DX'
p1943
F4.24
sS'MINX'
p1944
F15.0
sS'MINY'
p1945
F10.0
sS'MAXY'
p1946
F9999.0
sS'DATA TYPE'
p1947
S'MASS SPECTRUM'
p1948
sS'FIRSTX'
p1949
F15.0
sS'MAXX'
p1950
F167.0
sS'XUNITS'
p1951
S'M/Z'
p1952
sS'FIRSTY'
p1953
F20.0
sS'$NIST SOURCE'
p1954
S'MSDC'
p1955
sS'MW'
p1956
F165.0
sS'YUNITS'
p1957
S'RELATIVE INTENSITY'
p1958
sS'OWNER'
p1959
S'NIST Mass Spectrometry Data Center'
p1960
ssS'Toluene'
p1961
(dp1962
S'TITLE'
p1963
g1961
sS'CAS REGISTRY NO'
p1964
F108.0
sS'NPOINTS'
p1965
F41.0
sg8
S'./library/108-88-3-Mass.jdx'
p1966
sS'YFACTOR'
p1967
F1.0
sS'$NIST MASS SPEC NO'
p1968
F227551.0
sS'MOLFORM'
p1969
S'C7 H8'
p1970
sS'PEAK TABLE'
p1971
((lp1972
F26.0
aF27.0
aF28.0
aF37.0
aF38.0
aF39.0
aF40.0
aF41.0
aF43.0
aF44.0
aF45.0
aF46.0
aF49.0
aF50.0
aF51.0
aF52.0
aF53.0
aF55.0
aF57.0
aF60.0
aF61.0
aF62.0
aF63.0
aF64.0
aF65.0
aF66.0
aF73.0
aF74.0
aF75.0
aF76.0
aF77.0
aF83.0
aF85.0
aF86.0
aF87.0
aF89.0
aF90.0
aF91.0
aF92.0
aF93.0
aF94.0
a(lp1973
F50.0
aF179.0
aF20.0
aF109.0
aF249.0
aF1079.0
aF119.0
aF119.0
aF10.0
aF10.0
aF149.0
aF99.0
aF60.0
aF419.0
aF649.0
aF159.0
aF70.0
aF10.0
aF10.0
aF10.0
aF149.0
aF329.0
aF749.0
aF159.0
aF1219.0
aF149.0
aF10.0
aF90.0
aF60.0
aF30.0
aF99.0
aF10.0
aF40.0
aF80.0
aF40.0
aF399.0
aF219.0
aF9999.0
aF7769.0
aF549.0
aF10.0
atp1974
sS'LASTX'
p1975
F94.0
sS'XFACTOR'
p1976
F1.0
sS'ORIGIN'
p1977
S'Japan AIST/NIMC Database- Spectrum MS-NW- 67'
p1978
sS'JCAMP-DX'
p1979
F4.24
sS'MINX'
p1980
F26.0
sS'MINY'
p1981
F10.0
sS'MAXY'
p1982
F9999.0
sS'DATA TYPE'
p1983
S'MASS SPECTRUM'
p1984
sS'FIRSTX'
p1985
F26.0
sS'MAXX'
p1986
F94.0
sS'XUNITS'
p1987
S'M/Z'
p1988
sS'FIRSTY'
p1989
F50.0
sS'$NIST SOURCE'
p1990
S'MSDC'
p1991
sS'MW'
p1992
F92.0
sS'YUNITS'
p1993
S'RELATIVE INTENSITY'
p1994
sS'OWNER'
p1995
S'NIST Mass Spectrometry Data Center'
p1996
ssS'Hydrogen'
p1997
(dp1998
S'GROUP'
p1999
S'Air'
p2000
sS'TITLE'
p2001
g1997
sS'CAS REGISTRY NO'
p2002
F1333.0
sS'NPOINTS'
p2003
F2.0
sg8
S'./library/1333-74-0-Mass.jdx'
p2004
sS'YFACTOR'
p2005
F1.0
sS'$NIST MASS SPEC NO'
p2006
F245692.0
sS'MOLFORM'
p2007
S'H2'
p2008
sS'PEAK TABLE'
p2009
((lp2010
F1.0
aF2.0
a(lp2011
F210.0
aF9999.0
atp2012
sS'LASTX'
p2013
F2.0
sS'XFACTOR'
p2014
F1.0
sS'ORIGIN'
p2015
S'American Petroleum Institute Research Project 44'
p2016
sS'JCAMP-DX'
p2017
F4.24
sS'MINX'
p2018
F1.0
sS'MINY'
p2019
F210.0
sS'MAXY'
p2020
F9999.0
sS'DATA TYPE'
p2021
S'MASS SPECTRUM'
p2022
sS'FIRSTX'
p2023
F1.0
sS'MAXX'
p2024
F2.0
sS'XUNITS'
p2025
S'M/Z'
p2026
sS'FIRSTY'
p2027
F210.0
sS'$NIST SOURCE'
p2028
S'MSDC'
p2029
sS'MW'
p2030
F2.0
sS'YUNITS'
p2031
S'RELATIVE INTENSITY'
p2032
sS'OWNER'
p2033
S'NIST Mass Spectrometry Data Center'
p2034
ssS'Ammonia'
p2035
(dp2036
S'GROUP'
p2037
S'Solvents'
p2038
sS'TITLE'
p2039
g2035
sS'CAS REGISTRY NO'
p2040
F7664.0
sS'NPOINTS'
p2041
F5.0
sg8
S'./library/7664-41-7-Mass.jdx'
p2042
sS'YFACTOR'
p2043
F1.0
sS'$NIST MASS SPEC NO'
p2044
F6.0
sS'MOLFORM'
p2045
S'H3 N'
p2046
sS'PEAK TABLE'
p2047
((lp2048
F14.0
aF15.0
aF16.0
aF17.0
aF18.0
a(lp2049
F220.0
aF751.0
aF8007.0
aF9999.0
aF40.0
atp2050
sS'LASTX'
p2051
F18.0
sS'XFACTOR'
p2052
F1.0
sS'JCAMP-DX'
p2053
F4.24
sS'MINX'
p2054
F14.0
sS'MINY'
p2055
F40.0
sS'MAXY'
p2056
F9999.0
sS'DATA TYPE'
p2057
S'MASS SPECTRUM'
p2058
sS'FIRSTX'
p2059
F14.0
sS'MAXX'
p2060
F18.0
sS'XUNITS'
p2061
S'M/Z'
p2062
sS'FIRSTY'
p2063
F220.0
sS'$NIST SOURCE'
p2064
S'MSDC'
p2065
sS'MW'
p2066
F17.0
sS'YUNITS'
p2067
S'RELATIVE INTENSITY'
p2068
sS'OWNER'
p2069
S'NIST Mass Spectrometry Data Center'
p2070
ssS'Octane'
p2071
(dp2072
S'GROUP'
p2073
S'Hydrocarbons'
p2074
sS'TITLE'
p2075
g2071
sS'CAS REGISTRY NO'
p2076
F111.0
sS'NPOINTS'
p2077
F38.0
sg8
S'./library/111-65-9-Mass.jdx'
p2078
sS'YFACTOR'
p2079
F1.0
sS'$NIST MASS SPEC NO'
p2080
F229407.0
sS'MOLFORM'
p2081
S'C8 H18'
p2082
sS'PEAK TABLE'
p2083
((lp2084
F15.0
aF26.0
aF27.0
aF28.0
aF29.0
aF30.0
aF37.0
aF38.0
aF39.0
aF40.0
aF41.0
aF42.0
aF43.0
aF44.0
aF50.0
aF51.0
aF52.0
aF53.0
aF54.0
aF55.0
aF56.0
aF57.0
aF58.0
aF62.0
aF63.0
aF65.0
aF67.0
aF68.0
aF69.0
aF70.0
aF71.0
aF72.0
aF83.0
aF84.0
aF85.0
aF86.0
aF114.0
aF115.0
a(lp2085
F90.0
aF119.0
aF2009.0
aF389.0
aF2739.0
aF60.0
aF10.0
aF50.0
aF1229.0
aF209.0
aF4379.0
aF1529.0
aF9999.0
aF319.0
aF40.0
aF70.0
aF30.0
aF189.0
aF80.0
aF1139.0
aF1839.0
aF3349.0
aF149.0
aF10.0
aF20.0
aF20.0
aF40.0
aF10.0
aF159.0
aF1209.0
aF2039.0
aF99.0
aF10.0
aF709.0
aF2649.0
aF179.0
aF599.0
aF60.0
atp2086
sS'LASTX'
p2087
F115.0
sS'XFACTOR'
p2088
F1.0
sS'ORIGIN'
p2089
S'Japan AIST/NIMC Database- Spectrum MS-NW- 660'
p2090
sS'JCAMP-DX'
p2091
F4.24
sS'MINX'
p2092
F15.0
sS'MINY'
p2093
F10.0
sS'MAXY'
p2094
F9999.0
sS'DATA TYPE'
p2095
S'MASS SPECTRUM'
p2096
sS'FIRSTX'
p2097
F15.0
sS'MAXX'
p2098
F115.0
sS'XUNITS'
p2099
S'M/Z'
p2100
sS'FIRSTY'
p2101
F90.0
sS'$NIST SOURCE'
p2102
S'MSDC'
p2103
sS'MW'
p2104
F114.0
sS'YUNITS'
p2105
S'RELATIVE INTENSITY'
p2106
sS'OWNER'
p2107
S'NIST Mass Spectrometry Data Center'
p2108
ss.